(dp0
(cnumpy.core.multiarray
scalar
p1
(cnumpy
dtype
p2
(S'f8'
p3
I0
I1
tp4
Rp5
(I3
S'<'
p6
NNNI-1
I-1
I0
tp7
bS'\x00\x00\x00\x00\x00\x00\xe0?'
p8
tp9
Rp10
I24
tp11
(dp12
S'p_real_lst'
p13
(lp14
F0.024003319999999995
aF0.01963599999999999
aF0.022507559999999996
aF0.018327040000000003
aF0.02153544000000001
aF0.023214120000000005
aF0.02422552
aF0.023124280000000007
aF0.017876360000000004
aF0.023448440000000008
aF0.021309200000000007
aF0.02093687999999999
aF0.020342359999999997
aF0.019925359999999996
aF0.02135244000000001
aF0.0226438
aF0.02051752
aF0.024668999999999996
aF0.023679080000000016
aF0.02007155999999999
aF0.018131040000000008
aF0.025013000000000018
aF0.021515720000000012
aF0.01697668
aF0.027806240000000013
aF0.02163304000000002
aF0.018784760000000008
aF0.02736044
aF0.026234999999999987
aF0.020460320000000004
aF0.02402588
aF0.023923039999999996
aF0.01918068
aF0.02021792
aF0.021026520000000007
aF0.021524400000000003
aF0.024475239999999985
aF0.02025084
aF0.018984360000000006
aF0.01948192
aF0.01919480000000001
aF0.02238563999999999
aF0.023306719999999996
aF0.018422360000000006
aF0.020498080000000002
aF0.026949680000000007
aF0.021544079999999997
aF0.025583399999999996
aF0.021626959999999997
aF0.021997279999999998
ass(g1
(g5
S'433333\xe3?'
p15
tp16
Rp17
I16
tp18
(dp19
g13
(lp20
F0.05968299999999993
aF0.05942476000000002
aF0.07897376000000003
aF0.059632160000000045
aF0.05123288000000001
aF0.06375900000000004
aF0.05131556000000003
aF0.04326368000000004
aF0.05325687999999999
aF0.05439979999999999
aF0.06431527999999999
aF0.060100359999999985
aF0.04915311999999997
aF0.058666080000000044
aF0.07761332000000006
aF0.06199971999999997
aF0.06688556000000004
aF0.06178403999999996
aF0.06190392
aF0.05991504000000001
aF0.06649200000000004
aF0.05720360000000002
aF0.06661619999999994
aF0.06426771999999999
aF0.05917763999999998
aF0.06861131999999999
aF0.05614007999999999
aF0.06064096
aF0.06150247999999999
aF0.06311872000000003
aF0.05208436000000002
aF0.07986687999999997
aF0.06281999999999997
aF0.062102440000000016
aF0.07261619999999994
aF0.06446480000000003
aF0.06509228000000002
aF0.05508448
aF0.06963499999999999
aF0.052582079999999976
aF0.07723627999999993
aF0.06712884000000005
aF0.05736131999999998
aF0.06090039999999999
aF0.06003411999999998
aF0.07403012000000006
aF0.0581128
aF0.058999199999999995
aF0.04461628
aF0.07024539999999996
ass(g1
(g5
S'gfffff\xd6?'
p21
tp22
Rp23
I16
tp24
(dp25
g13
(lp26
F0.007178759999999998
aF0.006984680000000003
aF0.00686668
aF0.00632252
aF0.005358199999999999
aF0.005392799999999999
aF0.0057161200000000025
aF0.005829560000000001
aF0.005923839999999999
aF0.006482559999999999
aF0.006199040000000001
aF0.006283319999999999
aF0.007054640000000003
aF0.0055338
aF0.006294159999999997
aF0.007666360000000001
aF0.008617160000000002
aF0.00654012
aF0.00786916
aF0.006439319999999999
aF0.005956960000000001
aF0.00809304
aF0.007300639999999998
aF0.00420184
aF0.00544204
aF0.006161520000000001
aF0.0054782
aF0.006523560000000001
aF0.008173479999999997
aF0.005004200000000002
aF0.004969360000000002
aF0.007923159999999999
aF0.0068768399999999995
aF0.005811639999999999
aF0.005099040000000001
aF0.005196279999999999
aF0.005905999999999999
aF0.0073490000000000005
aF0.006508519999999999
aF0.00574048
aF0.004853680000000002
aF0.006517440000000002
aF0.006850760000000001
aF0.00521008
aF0.005476040000000001
aF0.00561348
aF0.00642468
aF0.007113039999999998
aF0.005577200000000001
aF0.0047978000000000005
ass(g1
(g5
S'\x9a\x99\x99\x99\x99\x99\xd9?'
p27
tp28
Rp29
I6
tp30
(dp31
S'p_real_lst'
p32
(lp33
F0.006054559999999999
aF0.00669396
aF0.007262720000000002
aF0.00857188
aF0.007945999999999998
aF0.007992600000000002
aF0.007523919999999998
aF0.00643548
aF0.008098399999999999
aF0.009943480000000003
aF0.006162399999999999
aF0.008833
aF0.00782944
aF0.007453919999999999
aF0.00606
aF0.007500600000000001
aF0.007330319999999999
aF0.00513248
aF0.008941959999999999
aF0.01031692
aF0.006316800000000004
aF0.00607572
aF0.005996639999999998
aF0.00669628
aF0.007562600000000002
aF0.004919439999999999
aF0.00766156
aF0.007880600000000003
aF0.007317479999999999
aF0.009129079999999998
aF0.007729560000000003
aF0.008927440000000003
aF0.007241520000000002
aF0.004831719999999999
aF0.008070559999999997
aF0.008818760000000002
aF0.006763960000000003
aF0.00517924
aF0.006924720000000001
aF0.006699160000000001
aF0.008898799999999998
aF0.008519919999999999
aF0.00486536
aF0.00594564
aF0.008765440000000003
aF0.007425319999999999
aF0.00637592
aF0.006883240000000001
aF0.00808432
aF0.006982600000000001
ass(g1
(g5
S'\xcd\xcc\xcc\xcc\xcc\xcc\xdc?'
p34
tp35
Rp36
I32
tp37
(dp38
g13
(lp39
F0.014983639999999996
aF0.012275839999999996
aF0.017315679999999996
aF0.012763240000000002
aF0.014371119999999994
aF0.01275456
aF0.013586279999999994
aF0.014143159999999995
aF0.015453520000000002
aF0.016773360000000005
aF0.012303960000000006
aF0.015438679999999996
aF0.01006708
aF0.0138924
aF0.015138440000000003
aF0.013764879999999997
aF0.012904160000000003
aF0.01433124
aF0.012335200000000003
aF0.011116839999999998
aF0.01666764
aF0.018521920000000004
aF0.012247480000000002
aF0.012104359999999998
aF0.014230080000000004
aF0.015976559999999994
aF0.011844680000000002
aF0.014666799999999999
aF0.012861799999999998
aF0.016010000000000007
aF0.016422040000000006
aF0.014736000000000003
aF0.0132352
aF0.011390520000000003
aF0.018116160000000003
aF0.018994559999999997
aF0.014559400000000009
aF0.014100720000000004
aF0.012544319999999996
aF0.011628920000000001
aF0.014854160000000009
aF0.011053520000000002
aF0.013952840000000005
aF0.01301708
aF0.014598879999999996
aF0.01310068
aF0.017475840000000003
aF0.017449680000000006
aF0.014236599999999997
aF0.015058080000000005
ass(g1
(g5
S'gfffff\xee?'
p40
tp41
Rp42
I8
tp43
(dp44
g13
(lp45
F0.7881874799999954
aF0.7709217600000036
aF0.7864253600000068
aF0.8245220400000067
aF0.7902983599999958
aF0.7981348799999984
aF0.7954104800000005
aF0.7799090000000048
aF0.762457719999998
aF0.7876526000000004
aF0.7761395200000024
aF0.7903380000000059
aF0.795487640000001
aF0.7987244400000011
aF0.8118905599999967
aF0.8086287199999975
aF0.777810600000002
aF0.7883911999999998
aF0.791597120000007
aF0.789006519999997
aF0.7515153200000007
aF0.7445887200000021
aF0.7728252799999983
aF0.8036074399999978
aF0.762736800000009
aF0.7608058400000034
aF0.7715203200000038
aF0.8053727999999979
aF0.7774180400000031
aF0.7789014799999958
aF0.8160423200000051
aF0.7736326800000002
aF0.7938724000000025
aF0.8053427600000045
aF0.790720640000002
aF0.7736263599999998
aF0.7864349199999978
aF0.749801519999998
aF0.7957046000000045
aF0.7587284400000065
aF0.7953052800000056
aF0.7732905600000001
aF0.7825181200000031
aF0.8018444400000001
aF0.7899324399999972
aF0.8146845600000043
aF0.7902532399999954
aF0.7983550800000018
aF0.7872458799999978
aF0.7818592800000013
ass(g1
(g5
S'\x9a\x99\x99\x99\x99\x99\xe9?'
p46
tp47
Rp48
I4
tp49
(dp50
S'p_real_lst'
p51
(lp52
F0.0963406400000002
aF0.08729012000000005
aF0.09106744000000006
aF0.09686620000000006
aF0.10528268000000005
aF0.10282408
aF0.11358224000000001
aF0.09593764000000002
aF0.11444075999999984
aF0.10915363999999989
aF0.08105311999999999
aF0.10095327999999999
aF0.09308203999999995
aF0.10451375999999998
aF0.09777139999999979
aF0.09183404000000012
aF0.11056035999999975
aF0.12472008000000011
aF0.10211916000000004
aF0.09979628000000008
aF0.08894532000000006
aF0.09558027999999995
aF0.09337248000000001
aF0.07513668000000005
aF0.10924011999999983
aF0.09455724000000008
aF0.11636791999999992
aF0.09336452000000002
aF0.10619703999999991
aF0.10494199999999994
aF0.10995568000000004
aF0.09278831999999992
aF0.13437591999999998
aF0.09268464000000003
aF0.08298291999999995
aF0.10327364000000007
aF0.10849624000000019
aF0.10680979999999983
aF0.10294883999999994
aF0.10165455999999998
aF0.10661964000000011
aF0.08830248000000006
aF0.1126318799999999
aF0.08529439999999999
aF0.08873964000000004
aF0.0972901599999999
aF0.10302943999999996
aF0.13711804000000008
aF0.08405548
aF0.12956927999999976
ass(g10
I32
tp53
(dp54
g13
(lp55
F0.018283120000000003
aF0.023999480000000004
aF0.0203076
aF0.024095159999999997
aF0.021315440000000012
aF0.022604440000000003
aF0.018038639999999998
aF0.0235222
aF0.022490999999999997
aF0.020619120000000008
aF0.019094199999999995
aF0.018665839999999993
aF0.021707360000000002
aF0.020284720000000003
aF0.016822040000000003
aF0.019724159999999998
aF0.019828160000000015
aF0.01689952
aF0.01611368000000001
aF0.01736684
aF0.020894560000000003
aF0.023618440000000015
aF0.02126787999999999
aF0.019409040000000006
aF0.025087480000000013
aF0.019252159999999994
aF0.02052324
aF0.017628120000000004
aF0.018713160000000003
aF0.020460359999999993
aF0.02425512000000001
aF0.021329880000000006
aF0.023156119999999995
aF0.020199959999999982
aF0.02494596
aF0.024877439999999987
aF0.017618280000000004
aF0.02164848
aF0.021620999999999994
aF0.021954640000000004
aF0.021698240000000004
aF0.018828839999999986
aF0.021486479999999995
aF0.01953004000000001
aF0.02091004
aF0.022606159999999993
aF0.019576399999999994
aF0.01835976000000001
aF0.017600600000000004
aF0.020982359999999995
ass(g1
(g5
S'\xcd\xcc\xcc\xcc\xcc\xcc\xdc?'
p56
tp57
Rp58
I4
tp59
(dp60
g51
(lp61
F0.002391
aF0.0023781600000000003
aF0.004576640000000002
aF0.00193128
aF0.002468840000000001
aF0.003454760000000001
aF0.0021366
aF0.00277728
aF0.0026414400000000005
aF0.00143504
aF0.0036851200000000005
aF0.00372128
aF0.003371960000000001
aF0.0035057600000000006
aF0.004685800000000001
aF0.0031056799999999996
aF0.0028139999999999997
aF0.0023379200000000007
aF0.0026418000000000006
aF0.0012300400000000004
aF0.0017920400000000004
aF0.00241904
aF0.00264444
aF0.00281572
aF0.003020159999999999
aF0.00309964
aF0.002799880000000001
aF0.0027622400000000004
aF0.004048640000000001
aF0.0017752800000000002
aF0.00335612
aF0.0015048
aF0.00268444
aF0.0026052800000000006
aF0.0019676399999999997
aF0.00258312
aF0.005119999999999999
aF0.00220684
aF0.003566400000000001
aF0.0034163600000000002
aF0.0016959999999999998
aF0.00260452
aF0.0032117600000000014
aF0.0029104800000000004
aF0.0017048400000000004
aF0.0029544000000000003
aF0.0026844399999999997
aF0.00299388
aF0.0026624400000000007
aF0.0028169199999999997
ass(g1
(g5
S'433333\xd3?'
p62
tp63
Rp64
I4
tp65
(dp66
g51
(lp67
F0.0012161200000000002
aF0.0007026799999999999
aF0.0016229600000000001
aF0.0015970800000000003
aF0.0023372
aF0.0010883600000000002
aF0.00106976
aF0.00098708
aF0.00112484
aF0.00176892
aF0.001151
aF0.0019684000000000004
aF0.0012332399999999998
aF0.00250488
aF0.0014579200000000001
aF0.0026920000000000004
aF0.00153124
aF0.0015735200000000003
aF0.0017498400000000001
aF0.00122344
aF0.00132252
aF0.00098504
aF0.0016704800000000002
aF0.0012010800000000002
aF0.0017576000000000002
aF0.00135364
aF0.00098988
aF0.0013368400000000002
aF0.00112552
aF0.0022550800000000005
aF0.00116832
aF0.0020574000000000005
aF0.0016467600000000002
aF0.0018331999999999999
aF0.0005244000000000001
aF0.0022502800000000003
aF0.001154
aF0.00129316
aF0.0009101600000000001
aF0.0015234
aF0.0016448
aF0.00157228
aF0.0020743600000000004
aF0.0012736800000000001
aF0.0017762800000000003
aF0.0012741599999999999
aF0.0008906000000000001
aF0.0018001999999999998
aF0.00090512
aF0.0017749600000000001
ass(g1
(g5
S'\x00\x00\x00\x00\x00\x00\xe0?'
p68
tp69
Rp70
I4
tp71
(dp72
g51
(lp73
F0.0057006
aF0.0049329199999999995
aF0.0045098
aF0.0025540400000000005
aF0.00275852
aF0.00337096
aF0.00409268
aF0.005272680000000002
aF0.0026883200000000006
aF0.00291204
aF0.0031978399999999995
aF0.0039372
aF0.008374799999999998
aF0.004183759999999999
aF0.003802399999999999
aF0.0039054800000000015
aF0.0029018800000000008
aF0.0031861200000000006
aF0.004268320000000001
aF0.004885200000000001
aF0.00556992
aF0.006243679999999999
aF0.00347232
aF0.004243520000000001
aF0.00447128
aF0.003869040000000001
aF0.005415400000000001
aF0.003516400000000001
aF0.004115799999999999
aF0.0024713200000000004
aF0.006387520000000001
aF0.004003119999999999
aF0.004060599999999999
aF0.0034827600000000005
aF0.0031984399999999994
aF0.0041246
aF0.0032430400000000004
aF0.0046858
aF0.0044899200000000005
aF0.005072920000000001
aF0.005237800000000002
aF0.003827840000000001
aF0.005298440000000001
aF0.0047962
aF0.00307016
aF0.004366879999999999
aF0.006251839999999999
aF0.0030395599999999997
aF0.005395200000000001
aF0.004832200000000001
ass(g1
(g5
S'433333\xd3?'
p74
tp75
Rp76
I8
tp77
(dp78
g13
(lp79
F0.0029962400000000003
aF0.0036675200000000014
aF0.0046244400000000005
aF0.003492280000000001
aF0.007583880000000001
aF0.0027593599999999998
aF0.005203439999999998
aF0.00490872
aF0.00401996
aF0.004414320000000001
aF0.00274308
aF0.0030042800000000002
aF0.0059234
aF0.0034040000000000008
aF0.00246816
aF0.0035298399999999994
aF0.004221600000000001
aF0.004511919999999999
aF0.0036090400000000013
aF0.0042156
aF0.002913399999999999
aF0.002974240000000001
aF0.00281808
aF0.0037694799999999995
aF0.0032405200000000006
aF0.0026529200000000005
aF0.0037554800000000007
aF0.0042309600000000015
aF0.0039527600000000005
aF0.0033586400000000004
aF0.00377952
aF0.0032946800000000004
aF0.004625200000000001
aF0.00337804
aF0.0058306400000000015
aF0.00431976
aF0.0042712
aF0.005543760000000001
aF0.00342616
aF0.004588439999999999
aF0.0034689200000000008
aF0.0028205600000000006
aF0.0038075599999999998
aF0.00322976
aF0.00434064
aF0.0031400000000000004
aF0.0052232400000000005
aF0.0038170800000000013
aF0.0032094800000000002
aF0.0030750000000000005
ass(g1
(g5
S'\x00\x00\x00\x00\x00\x00\xe0?'
p80
tp81
Rp82
I6
tp83
(dp84
g32
(lp85
F0.015489119999999993
aF0.0152772
aF0.022448439999999993
aF0.021787799999999996
aF0.018346920000000003
aF0.01848863999999999
aF0.02676048000000001
aF0.02154376
aF0.01344092
aF0.02467644
aF0.022410559999999993
aF0.019996520000000018
aF0.022619440000000005
aF0.01837276
aF0.021905040000000008
aF0.01624448000000001
aF0.01706424
aF0.02145748000000002
aF0.01515264
aF0.018293919999999998
aF0.01616716
aF0.01965864
aF0.021961880000000003
aF0.01680956
aF0.02253720000000001
aF0.019592479999999992
aF0.016362359999999996
aF0.020444919999999995
aF0.01623664
aF0.018967039999999998
aF0.019015479999999994
aF0.025822079999999994
aF0.02010724000000001
aF0.016808200000000006
aF0.016581120000000008
aF0.01632812
aF0.019936440000000014
aF0.01747272
aF0.018762839999999992
aF0.019308719999999984
aF0.02159724
aF0.017775200000000005
aF0.020448359999999992
aF0.017783559999999993
aF0.0310348
aF0.016717720000000005
aF0.023384320000000007
aF0.021211680000000004
aF0.021081
aF0.019463040000000004
ass(g1
(g5
S'gfffff\xee?'
p86
tp87
Rp88
I4
tp89
(dp90
g51
(lp91
F0.39682779999999906
aF0.3766680400000002
aF0.3755253199999999
aF0.4008853599999995
aF0.37392555999999905
aF0.3539737999999996
aF0.36142728000000096
aF0.42368008000000074
aF0.36251851999999973
aF0.43296488000000033
aF0.4031978799999992
aF0.3682682800000003
aF0.40211295999999924
aF0.4121089999999983
aF0.40119640000000106
aF0.42430247999999965
aF0.38082696000000005
aF0.4095749600000009
aF0.4006147600000007
aF0.3680479600000001
aF0.4180083600000006
aF0.3918633599999987
aF0.38933760000000023
aF0.36502891999999953
aF0.3606199999999991
aF0.3812502799999987
aF0.41665988000000004
aF0.3631983599999999
aF0.37234580000000006
aF0.38393212000000015
aF0.39599748000000135
aF0.34972940000000063
aF0.38342671999999933
aF0.40128643999999997
aF0.37684935999999963
aF0.4199669600000011
aF0.33930647999999985
aF0.4095712000000012
aF0.3282134399999993
aF0.3887622800000006
aF0.4250487200000004
aF0.4181965200000004
aF0.37919415999999995
aF0.39011947999999963
aF0.37348715999999893
aF0.35303679999999976
aF0.3317615199999997
aF0.4127604800000002
aF0.426114159999999
aF0.3427646800000003
ass(g36
I24
tp92
(dp93
g13
(lp94
F0.012980199999999996
aF0.01412944
aF0.017296080000000002
aF0.012010240000000004
aF0.0127694
aF0.01334888
aF0.0164994
aF0.013823640000000002
aF0.020065760000000012
aF0.01332496
aF0.014208160000000008
aF0.018789439999999998
aF0.01232796
aF0.01853844
aF0.013622559999999997
aF0.012548960000000003
aF0.011430560000000003
aF0.013364920000000004
aF0.013586919999999999
aF0.012904960000000002
aF0.015742560000000006
aF0.016069639999999996
aF0.01530356
aF0.012488240000000001
aF0.015701720000000002
aF0.013802160000000004
aF0.012130920000000002
aF0.012319160000000003
aF0.01615124
aF0.017307239999999995
aF0.012099560000000004
aF0.01784688
aF0.02254376000000001
aF0.01601968000000001
aF0.018236079999999995
aF0.01675804
aF0.01391928
aF0.015465959999999997
aF0.013367760000000003
aF0.0187934
aF0.012999320000000003
aF0.018385799999999994
aF0.0163202
aF0.01610592
aF0.010387720000000003
aF0.013911679999999996
aF0.012079520000000002
aF0.015395639999999997
aF0.015356320000000005
aF0.009682240000000003
ass(g1
(g5
S'\x9a\x99\x99\x99\x99\x99\xa9?'
p95
tp96
Rp97
I16
tp98
(dp99
g13
(lp100
F0.0010273600000000002
aF0.0009320800000000001
aF0.0008655200000000002
aF0.0018977599999999996
aF0.0014293200000000004
aF0.0011842
aF0.0022220800000000004
aF0.00132592
aF0.0013951599999999999
aF0.00215276
aF0.00077016
aF0.0013888400000000001
aF0.0006434800000000001
aF0.0017234800000000003
aF0.0009298
aF0.0004318
aF0.0007498
aF0.00083448
aF0.0013570000000000001
aF0.0014542000000000003
aF0.00067776
aF0.00161584
aF0.00037027999999999996
aF0.0015150799999999998
aF0.0011354800000000001
aF0.0010392
aF0.00088112
aF0.0014261600000000003
aF0.0007083600000000001
aF0.00119524
aF0.00124504
aF0.0005417600000000001
aF0.0010863600000000002
aF0.00146696
aF0.00196048
aF0.0015444000000000002
aF0.0010040000000000001
aF0.0014305600000000002
aF0.0015836
aF0.0006682000000000001
aF0.00098352
aF0.0010680800000000001
aF0.0012023199999999998
aF0.0014384
aF0.0008966800000000001
aF0.00108332
aF0.00110916
aF0.0012922399999999998
aF0.0016945600000000003
aF0.00083852
ass(g1
(g5
S'433333\xeb?'
p101
tp102
Rp103
I4
tp104
(dp105
g51
(lp106
F0.14392615999999997
aF0.14269772000000006
aF0.20379568
aF0.16483544000000017
aF0.1668029600000005
aF0.15447139999999976
aF0.18466132000000007
aF0.1263167200000001
aF0.1500921200000002
aF0.16464091999999989
aF0.17445131999999994
aF0.16728624
aF0.16637615999999983
aF0.18015923999999994
aF0.19032047999999993
aF0.1694468000000001
aF0.13652980000000015
aF0.14629932000000015
aF0.14271928000000011
aF0.19720907999999995
aF0.18427444000000012
aF0.18437960000000042
aF0.19880052000000034
aF0.17980443999999934
aF0.1930282399999997
aF0.13644191999999997
aF0.15777428000000002
aF0.16293756
aF0.16270175999999992
aF0.16596255999999973
aF0.1858112399999999
aF0.1695769599999999
aF0.1733827599999999
aF0.1513097599999999
aF0.17137140000000012
aF0.1783972
aF0.16000635999999982
aF0.1651290800000001
aF0.15983607999999994
aF0.18697352000000028
aF0.1774417199999998
aF0.14916960000000026
aF0.21658988
aF0.18102764000000043
aF0.17766140000000002
aF0.16225027999999986
aF0.1434740000000002
aF0.17626468000000042
aF0.15411356000000007
aF0.18111079999999993
ass(g1
(g5
S'\x9a\x99\x99\x99\x99\x99\xb9?'
p107
tp108
Rp109
I32
tp110
(dp111
g13
(lp112
F0.00186904
aF0.00147928
aF0.0019078800000000003
aF0.0016639600000000001
aF0.0020751600000000004
aF0.0009637600000000001
aF0.0025571600000000006
aF0.0012373199999999999
aF0.0017394399999999999
aF0.0012748400000000002
aF0.0015318799999999998
aF0.0013132400000000002
aF0.0012070800000000001
aF0.0013858800000000001
aF0.0018696000000000001
aF0.0018130400000000001
aF0.0010801600000000001
aF0.00119468
aF0.00144772
aF0.0013704400000000001
aF0.0019854
aF0.0015682400000000005
aF0.0018208400000000002
aF0.0016574400000000005
aF0.00141916
aF0.0008392
aF0.00162616
aF0.0019546400000000005
aF0.0011654800000000002
aF0.00190084
aF0.0014724400000000002
aF0.0009434400000000001
aF0.00122724
aF0.0015084400000000002
aF0.00224104
aF0.0009811200000000003
aF0.0031158
aF0.0011042
aF0.0013290800000000003
aF0.00125524
aF0.0009088400000000002
aF0.0013802000000000003
aF0.0023419200000000004
aF0.0009492400000000002
aF0.0020618
aF0.00107788
aF0.0012849200000000002
aF0.0013263200000000002
aF0.00079228
aF0.0010298400000000002
ass(g1
(g5
S'\xcd\xcc\xcc\xcc\xcc\xcc\xdc?'
p113
tp114
Rp115
I6
tp116
(dp117
g32
(lp118
F0.012728359999999994
aF0.010761880000000001
aF0.010549159999999998
aF0.011033479999999997
aF0.011527480000000001
aF0.01279092
aF0.01122268
aF0.010495600000000006
aF0.009213880000000002
aF0.014706840000000006
aF0.014113759999999996
aF0.012724240000000001
aF0.010667679999999995
aF0.014531760000000005
aF0.011268440000000005
aF0.01534684
aF0.009649680000000002
aF0.012911159999999998
aF0.013716080000000002
aF0.011438199999999997
aF0.01070496
aF0.01047092
aF0.013209559999999999
aF0.0151216
aF0.012373279999999999
aF0.012951359999999995
aF0.014094320000000004
aF0.01505080000000001
aF0.011775479999999998
aF0.01034808
aF0.010713519999999995
aF0.009917360000000002
aF0.011059600000000001
aF0.011277360000000002
aF0.011496600000000008
aF0.01514004
aF0.010154039999999996
aF0.012201879999999991
aF0.010418800000000002
aF0.011165720000000002
aF0.010897000000000004
aF0.011632720000000003
aF0.01138812
aF0.009979279999999995
aF0.013491239999999998
aF0.014097320000000005
aF0.011738400000000003
aF0.010604920000000002
aF0.00964128
aF0.011844160000000003
ass(g1
(g5
S'gfffff\xe6?'
p119
tp120
Rp121
I6
tp122
(dp123
g32
(lp124
F0.16955484000000007
aF0.20769059999999986
aF0.1720713200000002
aF0.1590229999999999
aF0.1696397599999996
aF0.18639552000000006
aF0.18674664000000013
aF0.1671292799999997
aF0.19409304000000008
aF0.15528356000000001
aF0.16448099999999988
aF0.16694047999999978
aF0.18648032000000023
aF0.19249191999999987
aF0.17432187999999996
aF0.2182644399999999
aF0.1321715200000001
aF0.18202879999999996
aF0.1660241199999998
aF0.19397660000000014
aF0.20516851999999994
aF0.18305280000000024
aF0.17207119999999998
aF0.16237616000000019
aF0.19153660000000042
aF0.16454496000000002
aF0.1705627600000001
aF0.17222983999999988
aF0.17931388
aF0.15067603999999982
aF0.19898211999999987
aF0.17829712000000011
aF0.20163976000000042
aF0.20629331999999975
aF0.14878908000000035
aF0.1600906399999999
aF0.1322226000000002
aF0.18169915999999978
aF0.19234256000000047
aF0.19284940000000006
aF0.14291220000000002
aF0.18088979999999985
aF0.17191575999999964
aF0.13951868000000017
aF0.19352792000000016
aF0.13946588
aF0.1873909199999997
aF0.19088839999999982
aF0.17086587999999978
aF0.17901160000000013
ass(g76
I24
tp125
(dp126
g13
(lp127
F0.00774716
aF0.0054684
aF0.00440208
aF0.00349416
aF0.005430640000000002
aF0.00382704
aF0.005153439999999999
aF0.005265400000000002
aF0.0037607599999999993
aF0.0038624
aF0.004450880000000002
aF0.00342912
aF0.003589160000000001
aF0.0034101600000000006
aF0.0034901199999999998
aF0.00448412
aF0.004626439999999999
aF0.005818160000000001
aF0.006670360000000001
aF0.00426844
aF0.006647839999999999
aF0.00330016
aF0.003979079999999999
aF0.0063102
aF0.004368960000000001
aF0.00460604
aF0.0050891999999999995
aF0.00435976
aF0.0057884
aF0.0049766
aF0.0050025600000000005
aF0.005746239999999999
aF0.005616079999999999
aF0.002980359999999999
aF0.0030654000000000002
aF0.0030872800000000004
aF0.004845040000000001
aF0.004199479999999999
aF0.0035435200000000005
aF0.00585016
aF0.005472639999999998
aF0.0037130000000000006
aF0.0036677199999999997
aF0.005565519999999999
aF0.0033817999999999995
aF0.0036386800000000005
aF0.00385624
aF0.0036673599999999997
aF0.0047123600000000005
aF0.00412144
ass(g1
(g5
S'\xcd\xcc\xcc\xcc\xcc\xcc\xec?'
p128
tp129
Rp130
I24
tp131
(dp132
g13
(lp133
F0.42337523999999993
aF0.46042696000000044
aF0.43272712000000035
aF0.42978996000000214
aF0.42834971999999993
aF0.3796360400000008
aF0.4232505600000005
aF0.4174501999999997
aF0.4223314800000003
aF0.44301199999999924
aF0.3971110000000012
aF0.42292304000000036
aF0.4076895200000005
aF0.44237788000000017
aF0.41999516000000026
aF0.4166815600000018
aF0.43037844000000014
aF0.4086506800000001
aF0.46643536000000096
aF0.4175494000000014
aF0.4411731200000006
aF0.39561628000000054
aF0.4528588400000009
aF0.4286711600000008
aF0.43709732000000134
aF0.4155846799999994
aF0.42761811999999927
aF0.3964403200000015
aF0.43108436000000006
aF0.43584716000000123
aF0.4402593599999996
aF0.4534848799999991
aF0.443069120000001
aF0.440829920000001
aF0.38862416000000083
aF0.4505799200000024
aF0.43352784000000066
aF0.3958637200000013
aF0.41355435999999995
aF0.38966792000000083
aF0.42844219999999966
aF0.42523591999999977
aF0.42102408000000047
aF0.4106939599999993
aF0.4515705200000017
aF0.4403702799999993
aF0.4139413200000005
aF0.43410444000000153
aF0.43255600000000005
aF0.41407044000000065
ass(g1
(g5
S'gfffff\xe6?'
p134
tp135
Rp136
I8
tp137
(dp138
g13
(lp139
F0.2080946400000002
aF0.20517808000000032
aF0.20738568000000016
aF0.1668606
aF0.20196036000000012
aF0.1780700400000002
aF0.20716048000000006
aF0.20126491999999976
aF0.2204393199999996
aF0.1981884800000001
aF0.1880186800000003
aF0.20155947999999985
aF0.21845299999999968
aF0.1786749999999999
aF0.21193243999999975
aF0.19712452000000014
aF0.17643892000000003
aF0.16943767999999998
aF0.19213059999999965
aF0.19731516
aF0.2017573599999999
aF0.18268348000000015
aF0.1830913999999999
aF0.2025328799999998
aF0.20614071999999983
aF0.20374172000000035
aF0.22048344000000045
aF0.1758643999999999
aF0.19647207999999994
aF0.20136968000000033
aF0.21420636000000032
aF0.18788044000000023
aF0.2005143199999997
aF0.2398086000000001
aF0.19216816000000028
aF0.23528980000000016
aF0.18931423999999977
aF0.1969650399999997
aF0.19960643999999989
aF0.2114730400000004
aF0.20721264000000042
aF0.24307159999999964
aF0.20676323999999996
aF0.21173276
aF0.1467912
aF0.20109467999999994
aF0.20768855999999983
aF0.23052076000000074
aF0.20762904000000035
aF0.2011126400000004
ass(g1
(g5
S'\x9a\x99\x99\x99\x99\x99\xd9?'
p140
tp141
Rp142
I4
tp143
(dp144
g51
(lp145
F0.0024892800000000004
aF0.00289528
aF0.00232064
aF0.0018585999999999995
aF0.0022384799999999997
aF0.0020512799999999995
aF0.00235776
aF0.0023485199999999998
aF0.0027087200000000004
aF0.0026934400000000005
aF0.002668120000000001
aF0.0029041200000000005
aF0.00171344
aF0.0031170399999999997
aF0.0018542000000000003
aF0.00305392
aF0.00289008
aF0.00330936
aF0.0025620799999999996
aF0.00302588
aF0.0022388
aF0.00209196
aF0.0030294399999999996
aF0.00222948
aF0.0015916400000000003
aF0.00217292
aF0.003062600000000001
aF0.0021796800000000002
aF0.0015555600000000003
aF0.0035869600000000006
aF0.00289912
aF0.0016614400000000001
aF0.00252416
aF0.00146168
aF0.002739440000000001
aF0.0019660399999999996
aF0.00261484
aF0.00125572
aF0.0018855200000000001
aF0.0019462799999999999
aF0.0014835999999999998
aF0.0030006399999999997
aF0.0038122400000000006
aF0.0015554400000000002
aF0.0024715200000000005
aF0.00227492
aF0.0029524000000000004
aF0.0031278800000000004
aF0.0017881200000000005
aF0.002917240000000001
ass(g1
(g5
S'\xcd\xcc\xcc\xcc\xcc\xcc\xec?'
p146
tp147
Rp148
I6
tp149
(dp150
g32
(lp151
F0.6419372400000017
aF0.6749656399999984
aF0.7295119199999979
aF0.6725765599999975
aF0.6998633999999992
aF0.6928583199999989
aF0.6963274800000003
aF0.6569111199999964
aF0.647724280000001
aF0.6789376000000021
aF0.6168798799999996
aF0.6689263200000009
aF0.6386883199999989
aF0.6704979200000045
aF0.680226400000001
aF0.7026250400000008
aF0.6722118000000047
aF0.6430582800000043
aF0.6632749600000004
aF0.6592376000000011
aF0.6848470399999961
aF0.6652123999999978
aF0.6849480799999961
aF0.7054391999999987
aF0.6806544399999989
aF0.6525468799999977
aF0.6947477199999967
aF0.6583265200000004
aF0.6812941200000001
aF0.6588928800000035
aF0.6460361600000004
aF0.6614233200000004
aF0.6696788800000011
aF0.6407848400000008
aF0.6409049999999983
aF0.7018738799999997
aF0.6953143200000022
aF0.635329040000002
aF0.6904822800000019
aF0.6293122000000031
aF0.7030450400000045
aF0.6525688800000009
aF0.6591354399999997
aF0.6630525200000005
aF0.6620707599999983
aF0.7012766400000012
aF0.6582741200000013
aF0.7278831200000044
aF0.6982844399999986
aF0.677070559999999
ass(g1
(g5
S'gfffff\xee?'
p152
tp153
Rp154
I6
tp155
(dp156
g32
(lp157
F0.7762547599999976
aF0.7842671200000025
aF0.7665127999999946
aF0.8000552399999941
aF0.7833348399999988
aF0.8030429199999926
aF0.7739284000000024
aF0.804763520000004
aF0.7405224400000027
aF0.7625482399999983
aF0.7956520000000015
aF0.7670014399999966
aF0.8208954
aF0.802354160000005
aF0.792048879999998
aF0.7386171599999957
aF0.7398265999999926
aF0.7677666799999981
aF0.7654217200000027
aF0.8102789600000003
aF0.7487743200000057
aF0.7725568400000037
aF0.7688626799999988
aF0.7541059199999979
aF0.7887264000000047
aF0.772704879999997
aF0.7528607999999969
aF0.8082984000000049
aF0.7880353999999936
aF0.7840492800000073
aF0.7424713600000029
aF0.7805739999999964
aF0.7574394399999984
aF0.7332647200000041
aF0.7767181999999989
aF0.7771980400000001
aF0.7605466800000013
aF0.7872982800000055
aF0.7576900399999934
aF0.7820512000000064
aF0.7609835600000022
aF0.7463331200000065
aF0.7387416800000044
aF0.7414989199999978
aF0.7503323599999953
aF0.774731800000003
aF0.7607662800000005
aF0.7253416799999959
aF0.7194363999999945
aF0.7899030399999971
ass(g1
(g5
S'\xcd\xcc\xcc\xcc\xcc\xcc\xe4?'
p158
tp159
Rp160
I32
tp161
(dp162
g13
(lp163
F0.07043867999999999
aF0.06279324000000003
aF0.07005204000000002
aF0.07182048000000006
aF0.08208779999999996
aF0.06679200000000007
aF0.07486823999999999
aF0.07292508000000004
aF0.06415835999999994
aF0.06194576000000001
aF0.05919032000000001
aF0.06149936000000001
aF0.06664607999999998
aF0.06422164
aF0.08868412
aF0.07053604000000005
aF0.06571344000000005
aF0.06710984000000005
aF0.07055923999999991
aF0.061973639999999997
aF0.06889908
aF0.0837475600000001
aF0.06653579999999998
aF0.06832548000000005
aF0.06770815999999998
aF0.07563980000000005
aF0.06316904000000001
aF0.06557660000000003
aF0.05964060000000004
aF0.07477279999999996
aF0.05933240000000003
aF0.0755803599999999
aF0.06410272000000004
aF0.07159896000000003
aF0.06578960000000013
aF0.07599956000000002
aF0.06657128000000004
aF0.05874468000000002
aF0.06519631999999997
aF0.05825220000000004
aF0.07031671999999994
aF0.06545627999999994
aF0.07276647999999998
aF0.06159407999999999
aF0.050917200000000024
aF0.06788484000000004
aF0.06332180000000001
aF0.07229452000000011
aF0.057318520000000026
aF0.0724750000000001
ass(g17
I24
tp164
(dp165
g13
(lp166
F0.042812880000000005
aF0.06067004000000004
aF0.06477127999999997
aF0.05240975999999998
aF0.06419995999999997
aF0.050651360000000006
aF0.042809919999999994
aF0.04855031999999997
aF0.06433803999999994
aF0.06330260000000004
aF0.05646536000000007
aF0.05470079999999999
aF0.05345976000000005
aF0.04503027999999997
aF0.05070856000000001
aF0.057287720000000014
aF0.058341079999999955
aF0.049147920000000074
aF0.06282643999999993
aF0.053641320000000006
aF0.052905160000000014
aF0.04592671999999999
aF0.06500675999999998
aF0.06079107999999998
aF0.04917540000000001
aF0.05983820000000005
aF0.042641239999999976
aF0.04615856000000001
aF0.05194376
aF0.05640439999999996
aF0.05053595999999998
aF0.05264723999999997
aF0.04637948
aF0.06392107999999999
aF0.05584367999999999
aF0.05433303999999999
aF0.05415591999999997
aF0.06464832000000006
aF0.05677064
aF0.052409120000000003
aF0.04428148
aF0.05408095999999999
aF0.04949712
aF0.06318587999999992
aF0.055640719999999935
aF0.04923692
aF0.04606084
aF0.05934100000000007
aF0.05192588
aF0.062003560000000006
ass(g23
I8
tp167
(dp168
g13
(lp169
F0.004664840000000001
aF0.0040814399999999995
aF0.005358800000000001
aF0.0055937999999999995
aF0.00538724
aF0.005456719999999999
aF0.005535279999999999
aF0.004877359999999999
aF0.00428976
aF0.006461839999999999
aF0.007158960000000003
aF0.0047025600000000015
aF0.00512836
aF0.0043776
aF0.0065709600000000016
aF0.0037820400000000004
aF0.00698488
aF0.007092320000000002
aF0.00665112
aF0.0045417999999999995
aF0.007800680000000002
aF0.0028889599999999994
aF0.00450192
aF0.0050098400000000015
aF0.004592560000000001
aF0.004931320000000001
aF0.0052810800000000005
aF0.004614800000000002
aF0.00556496
aF0.007098040000000002
aF0.005268559999999999
aF0.007054680000000002
aF0.00497028
aF0.005143039999999998
aF0.00600256
aF0.0070707999999999995
aF0.0048446
aF0.005231480000000001
aF0.004928320000000001
aF0.00523332
aF0.0057805200000000025
aF0.004135120000000002
aF0.008472240000000002
aF0.005850920000000001
aF0.005396079999999999
aF0.00793784
aF0.00719576
aF0.0069976399999999985
aF0.004717960000000001
aF0.007666800000000001
ass(g1
(g5
S'\x9a\x99\x99\x99\x99\x99\xe9?'
p170
tp171
Rp172
I8
tp173
(dp174
g13
(lp175
F0.46424455999999953
aF0.46322795999999944
aF0.4454812799999999
aF0.4259063600000003
aF0.3989812400000001
aF0.45302515999999937
aF0.446743560000001
aF0.4295124400000004
aF0.4310909600000007
aF0.4660927599999988
aF0.42128079999999984
aF0.4660856799999988
aF0.4861530799999999
aF0.4716803600000007
aF0.45326692000000074
aF0.40543152000000177
aF0.464116599999999
aF0.42217767999999906
aF0.40541768
aF0.44759200000000043
aF0.4050417999999996
aF0.4647244800000003
aF0.4066178399999991
aF0.4215825199999995
aF0.455178319999999
aF0.45212232000000113
aF0.4463066799999994
aF0.441691200000001
aF0.40312055999999974
aF0.4905297599999999
aF0.4697081599999982
aF0.4707170799999997
aF0.45690984000000195
aF0.4312877200000014
aF0.42546304000000007
aF0.3944313200000003
aF0.43925723999999977
aF0.4140739599999992
aF0.46966580000000013
aF0.488535920000001
aF0.4580381200000016
aF0.4410687999999993
aF0.4722541999999994
aF0.43488748
aF0.4298543200000011
aF0.37988643999999905
aF0.4305358
aF0.4470861999999988
aF0.4199748799999982
aF0.41958143999999964
ass(g130
I8
tp176
(dp177
g13
(lp178
F0.7390225199999999
aF0.7173512800000006
aF0.667875159999998
aF0.6802234399999985
aF0.6666232800000035
aF0.6910628800000048
aF0.7029740399999995
aF0.6753445599999945
aF0.6848010399999951
aF0.668032479999997
aF0.7108262800000013
aF0.6998493600000015
aF0.7050938799999953
aF0.6808123600000004
aF0.6896962000000051
aF0.7204578800000053
aF0.720266999999997
aF0.7118420799999997
aF0.7137785999999973
aF0.6850646799999981
aF0.711935239999999
aF0.6997310800000025
aF0.7146698799999994
aF0.7002259199999948
aF0.7468863199999993
aF0.7093066799999982
aF0.7087973599999988
aF0.684559639999999
aF0.6944532800000022
aF0.6776352799999992
aF0.7144206399999969
aF0.6930919200000016
aF0.7041544799999999
aF0.6963588400000048
aF0.6689545200000001
aF0.7296425599999963
aF0.6801576799999937
aF0.6897216400000011
aF0.7023679199999993
aF0.7157582800000027
aF0.6989694400000022
aF0.6793366399999997
aF0.7531822399999991
aF0.6769891599999937
aF0.678895919999998
aF0.7046754800000008
aF0.6808024399999988
aF0.707120560000005
aF0.6911055199999988
aF0.7156492399999999
ass(g160
I24
tp179
(dp180
g13
(lp181
F0.07474716000000002
aF0.07190419999999999
aF0.07371068000000001
aF0.06723256000000004
aF0.08829952000000002
aF0.07397975999999996
aF0.07645512000000003
aF0.07482556
aF0.07426324000000002
aF0.07835175999999999
aF0.06651083999999997
aF0.07284736000000004
aF0.08263759999999995
aF0.06523020000000002
aF0.08623100000000004
aF0.08195344000000004
aF0.08473707999999998
aF0.07185360000000003
aF0.09589139999999989
aF0.0750156399999999
aF0.07940816000000009
aF0.09216756000000004
aF0.09360352000000008
aF0.08433932000000006
aF0.08988564000000004
aF0.0794832399999999
aF0.08524255999999997
aF0.0737365199999999
aF0.09448272000000005
aF0.07822359999999996
aF0.08196260000000001
aF0.07893560000000001
aF0.07863996000000002
aF0.08385496000000006
aF0.08016615999999994
aF0.07533835999999998
aF0.09165124000000001
aF0.08444088000000002
aF0.07394679999999997
aF0.0919099999999999
aF0.08391644000000004
aF0.08247883999999991
aF0.06358788000000004
aF0.08841120000000002
aF0.08997523999999996
aF0.07703520000000004
aF0.09148912000000002
aF0.08435468000000002
aF0.08249140000000003
aF0.08756936000000004
ass(g1
(g5
S'\x9a\x99\x99\x99\x99\x99\xd9?'
p182
tp183
Rp184
I8
tp185
(dp186
g13
(lp187
F0.00849536
aF0.009766120000000001
aF0.01134244
aF0.007464719999999999
aF0.007252519999999999
aF0.01016424
aF0.00786448
aF0.009323520000000002
aF0.007714480000000002
aF0.008595479999999997
aF0.0117768
aF0.010162759999999998
aF0.007888520000000003
aF0.007236239999999999
aF0.008993560000000001
aF0.007953080000000001
aF0.00770344
aF0.008990680000000001
aF0.00786492
aF0.010083480000000002
aF0.010362920000000001
aF0.00877584
aF0.010359799999999999
aF0.0091546
aF0.0092884
aF0.007959359999999999
aF0.008730080000000003
aF0.00806344
aF0.008288720000000001
aF0.009569320000000001
aF0.012894919999999992
aF0.010119000000000003
aF0.007259920000000002
aF0.010325680000000002
aF0.007019640000000001
aF0.00743468
aF0.00844452
aF0.009243
aF0.007730679999999999
aF0.010541560000000004
aF0.006908240000000003
aF0.010391920000000002
aF0.0101146
aF0.008854840000000001
aF0.00963984
aF0.007385919999999998
aF0.0102978
aF0.010256119999999997
aF0.008499360000000001
aF0.00691036
ass(g17
I32
tp188
(dp189
g13
(lp190
F0.04354832
aF0.046503199999999995
aF0.06229307999999996
aF0.04300232000000002
aF0.043800679999999995
aF0.041547640000000045
aF0.04537911999999998
aF0.04821968000000003
aF0.05293331999999999
aF0.043711240000000005
aF0.03823972
aF0.04726739999999997
aF0.03957016
aF0.04798523999999998
aF0.05554892000000001
aF0.05783759999999998
aF0.05216603999999998
aF0.04844807999999999
aF0.054081319999999954
aF0.04206691999999999
aF0.05487628000000001
aF0.04785140000000005
aF0.04527808000000001
aF0.04825288000000004
aF0.05667128000000003
aF0.04402472000000002
aF0.04790448000000002
aF0.05138328000000009
aF0.043763559999999986
aF0.05150084000000002
aF0.0442258
aF0.04013236
aF0.04060060000000001
aF0.046012920000000006
aF0.04615763999999999
aF0.04465408000000002
aF0.043122079999999986
aF0.04635444000000002
aF0.053101119999999995
aF0.04393408000000001
aF0.03994840000000001
aF0.05024139999999994
aF0.04127028
aF0.042695359999999995
aF0.04438368000000002
aF0.04782179999999999
aF0.04709243999999999
aF0.04101035999999999
aF0.051865920000000044
aF0.05160440000000003
ass(g1
(g5
S'\x00\x00\x00\x00\x00\x00\xe8?'
p191
tp192
Rp193
I6
tp194
(dp195
g32
(lp196
F0.3282760800000016
aF0.31104684000000016
aF0.32039268000000054
aF0.26103080000000045
aF0.26415056000000003
aF0.28509192000000044
aF0.2688028400000003
aF0.2920529999999994
aF0.2550655999999996
aF0.24252427999999995
aF0.2682652000000002
aF0.2749678800000001
aF0.2726243999999991
aF0.2688686799999996
aF0.25731291999999967
aF0.29108664000000034
aF0.28637396000000087
aF0.2722509200000003
aF0.2535183600000004
aF0.2881585199999998
aF0.24950512000000016
aF0.3074764000000004
aF0.28881536000000085
aF0.3014044399999996
aF0.2719606000000007
aF0.29118496000000055
aF0.3074326799999998
aF0.2524940800000001
aF0.27784036000000073
aF0.2756057599999997
aF0.2786754800000003
aF0.27511403999999956
aF0.26609444000000004
aF0.28894808000000005
aF0.2640016000000005
aF0.2616513999999996
aF0.2652889599999998
aF0.24520363999999983
aF0.23629000000000003
aF0.2695981200000003
aF0.25823700000000005
aF0.24651879999999984
aF0.24541892000000004
aF0.26720171999999925
aF0.33980275999999954
aF0.3008246400000005
aF0.2703757600000005
aF0.29974251999999946
aF0.2766309199999998
aF0.22699880000000036
ass(g1
(g5
S'\x00\x00\x00\x00\x00\x00\xd0?'
p197
tp198
Rp199
I24
tp200
(dp201
g13
(lp202
F0.00285492
aF0.0026874400000000006
aF0.0036957999999999995
aF0.003460120000000001
aF0.004860399999999999
aF0.005002919999999999
aF0.00268124
aF0.0029603600000000004
aF0.0035951999999999994
aF0.0029006400000000003
aF0.0035558
aF0.0032974400000000004
aF0.0021947600000000005
aF0.0029075199999999994
aF0.0033425200000000003
aF0.0032647599999999994
aF0.0027760400000000005
aF0.00348592
aF0.0034665599999999996
aF0.0019992
aF0.00375404
aF0.004676679999999999
aF0.00240164
aF0.00268592
aF0.00453008
aF0.00307544
aF0.00292712
aF0.002059
aF0.00420164
aF0.0029038800000000006
aF0.004357719999999999
aF0.004838920000000002
aF0.0037127600000000007
aF0.0025506
aF0.0029839999999999997
aF0.0020112000000000003
aF0.0040447600000000005
aF0.0027684800000000002
aF0.0030299999999999997
aF0.0036670400000000008
aF0.0035404399999999997
aF0.0026315600000000007
aF0.0026081600000000004
aF0.003972359999999999
aF0.0033486800000000014
aF0.0031708799999999996
aF0.0036085200000000005
aF0.003918
aF0.0031206000000000003
aF0.0028007600000000007
ass(g1
(g5
S'433333\xc3?'
p203
tp204
Rp205
I4
tp206
(dp207
g51
(lp208
F0.0015357599999999997
aF0.0009306399999999999
aF0.0006936000000000002
aF0.00079036
aF0.00133256
aF0.00132512
aF0.0013406
aF0.00040904
aF0.0007146800000000001
aF0.0017746800000000003
aF0.00131588
aF0.0013234800000000001
aF0.0008514800000000002
aF0.0013854
aF0.00103468
aF0.0018961200000000003
aF0.00101072
aF0.0018314800000000001
aF0.0015147200000000002
aF0.0008516800000000001
aF0.0017234400000000003
aF0.00107072
aF0.0006213200000000001
aF0.00143416
aF0.00056784
aF0.00145672
aF0.0016340400000000004
aF0.0014026000000000002
aF0.00131448
aF0.0004922800000000001
aF0.00132748
aF0.00089784
aF0.0008478000000000001
aF0.00104128
aF0.00092224
aF0.00096216
aF0.0009097600000000001
aF0.0009296
aF0.00071344
aF0.00146792
aF0.0010241599999999999
aF0.0011794400000000001
aF0.00157248
aF0.0006911600000000001
aF0.00111212
aF0.00117644
aF0.0007578400000000001
aF0.00097248
aF0.00129952
aF0.00066808
ass(g1
(g5
S'\x9a\x99\x99\x99\x99\x99\xb9?'
p209
tp210
Rp211
I4
tp212
(dp213
g51
(lp214
F0.00055876
aF0.00040624
aF0.0013534800000000002
aF0.0007622
aF0.0014888400000000002
aF0.0004916
aF0.0014853600000000002
aF0.00133096
aF0.0011724399999999999
aF0.0012572
aF0.0009127600000000001
aF0.00057828
aF0.0012476
aF0.00094068
aF0.00108212
aF0.00143972
aF0.00079056
aF0.00118308
aF0.0010374400000000002
aF0.00072576
aF0.00071064
aF0.00102668
aF0.00171748
aF0.00146384
aF0.0010011199999999999
aF0.0012773200000000002
aF0.0013978
aF0.00102588
aF0.00063812
aF0.00073344
aF0.00071016
aF0.00075736
aF0.00068968
aF0.00057788
aF0.00203836
aF0.00106992
aF0.0008445200000000001
aF0.0009737599999999998
aF0.0009913600000000002
aF0.00079568
aF0.00077352
aF0.0010322
aF0.0012894400000000002
aF0.0014344400000000002
aF0.0010764000000000001
aF0.000797
aF0.00083328
aF0.0003262
aF0.00057636
aF0.0009043600000000001
ass(g1
(g5
S'\x9a\x99\x99\x99\x99\x99\xc9?'
p215
tp216
Rp217
I16
tp218
(dp219
g13
(lp220
F0.00234728
aF0.0017817600000000003
aF0.0023526
aF0.00211756
aF0.0012684400000000002
aF0.00272216
aF0.00171092
aF0.003001600000000001
aF0.0025624800000000002
aF0.0020664000000000004
aF0.0031190800000000006
aF0.0030533600000000006
aF0.0018998399999999999
aF0.0021744399999999997
aF0.0027426
aF0.0034019200000000006
aF0.0022971599999999995
aF0.0035064799999999998
aF0.0026697200000000004
aF0.00205164
aF0.0026912800000000003
aF0.0017647600000000002
aF0.0019448000000000002
aF0.0019179600000000002
aF0.0029499600000000006
aF0.00303476
aF0.00279652
aF0.00185536
aF0.0013923600000000003
aF0.0022885200000000005
aF0.0029726800000000005
aF0.0026088399999999994
aF0.0026418400000000003
aF0.0026517199999999998
aF0.0015234400000000003
aF0.004351160000000001
aF0.0025497199999999992
aF0.0021248400000000007
aF0.0015461200000000002
aF0.00161912
aF0.00181676
aF0.0020823599999999997
aF0.00335056
aF0.0021269600000000002
aF0.00209324
aF0.0015492
aF0.00201572
aF0.00174924
aF0.00195648
aF0.0025118
ass(g1
(g5
S'433333\xc3?'
p221
tp222
Rp223
I6
tp224
(dp225
g32
(lp226
F0.0019068000000000004
aF0.0016586400000000003
aF0.0016254400000000001
aF0.0011569200000000003
aF0.0016950799999999999
aF0.0009034000000000002
aF0.00098948
aF0.00272424
aF0.00206504
aF0.0011714
aF0.00186428
aF0.00170908
aF0.0014058000000000002
aF0.0014738800000000001
aF0.0020243600000000002
aF0.0016300000000000002
aF0.00144232
aF0.0017584800000000002
aF0.0024593600000000003
aF0.0017353200000000003
aF0.0010914800000000001
aF0.0005352800000000001
aF0.0020558800000000004
aF0.0019464
aF0.00173688
aF0.0029252800000000006
aF0.0015460000000000005
aF0.0016270800000000004
aF0.0018574800000000001
aF0.0022102000000000003
aF0.00191792
aF0.00125096
aF0.00159956
aF0.00228036
aF0.0025146400000000003
aF0.0019424400000000001
aF0.0021132
aF0.00097824
aF0.0013753600000000002
aF0.00217976
aF0.00169648
aF0.00162312
aF0.0017443600000000001
aF0.0019898
aF0.0014724
aF0.0013782800000000004
aF0.0012602
aF0.0021565200000000003
aF0.0015460000000000003
aF0.00109228
ass(g136
I32
tp227
(dp228
g13
(lp229
F0.10452423999999984
aF0.10228319999999998
aF0.08949044000000003
aF0.09281056000000004
aF0.10823904000000002
aF0.09524695999999991
aF0.11813388000000001
aF0.10427247999999992
aF0.10964976000000017
aF0.0982144799999999
aF0.10405408000000015
aF0.11224975999999995
aF0.10741748
aF0.10208008000000013
aF0.10305224000000002
aF0.10311912
aF0.11746780000000012
aF0.10213783999999985
aF0.08479024000000003
aF0.10671880000000003
aF0.10649932000000008
aF0.09845831999999995
aF0.09957776
aF0.12010072000000008
aF0.12478524000000006
aF0.08870867999999997
aF0.11285943999999991
aF0.11193775999999996
aF0.10800199999999989
aF0.09642791999999999
aF0.10518360000000015
aF0.10756888000000003
aF0.09038527999999998
aF0.09323856000000008
aF0.11650735999999998
aF0.11099200000000002
aF0.09550391999999996
aF0.10868795999999986
aF0.09031588000000002
aF0.09146255999999993
aF0.1106206
aF0.11460884000000009
aF0.09301620000000006
aF0.11019043999999997
aF0.10113936000000003
aF0.10025067999999993
aF0.08166879999999997
aF0.09196580000000014
aF0.10340360000000001
aF0.10195180000000018
ass(g109
I8
tp230
(dp231
g13
(lp232
F0.0015681199999999999
aF0.00161732
aF0.0010012
aF0.00160736
aF0.0017606799999999997
aF0.0012258
aF0.0025239600000000004
aF0.00117268
aF0.0008612400000000001
aF0.0009029600000000001
aF0.00203092
aF0.00074032
aF0.0013481600000000002
aF0.00181188
aF0.0009510800000000001
aF0.0015080400000000002
aF0.00211072
aF0.0013947599999999999
aF0.0019072000000000002
aF0.0018607200000000002
aF0.0012138000000000003
aF0.0011650800000000002
aF0.0013516800000000003
aF0.00066812
aF0.00128736
aF0.0010440800000000002
aF0.0008568800000000001
aF0.00084116
aF0.00141604
aF0.001172
aF0.0009687200000000002
aF0.00085648
aF0.0012826400000000003
aF0.00116752
aF0.00059624
aF0.00061572
aF0.00214788
aF0.0019214000000000002
aF0.0017383200000000002
aF0.00059604
aF0.0016560400000000001
aF0.00106768
aF0.0011748
aF0.00128212
aF0.00124204
aF0.00119668
aF0.0013704399999999997
aF0.0017189599999999998
aF0.0009082400000000003
aF0.0010383599999999999
ass(g1
(g5
S'433333\xc3?'
p233
tp234
Rp235
I32
tp236
(dp237
g13
(lp238
F0.00074104
aF0.00189436
aF0.0016497600000000001
aF0.0023210400000000003
aF0.00109128
aF0.00206296
aF0.0009602
aF0.00212504
aF0.0014711999999999998
aF0.00184516
aF0.00190612
aF0.00269992
aF0.00216356
aF0.0017171600000000001
aF0.0009317600000000002
aF0.00217872
aF0.00233652
aF0.0019460800000000002
aF0.00152004
aF0.00150112
aF0.00206632
aF0.0014552000000000002
aF0.00223608
aF0.0017692400000000003
aF0.0025138000000000005
aF0.00116324
aF0.00257448
aF0.00128132
aF0.0015087600000000005
aF0.002567600000000001
aF0.00141496
aF0.0016302000000000005
aF0.0012092000000000001
aF0.0018796800000000001
aF0.0028695199999999995
aF0.0019235999999999997
aF0.0016127600000000002
aF0.0022678399999999997
aF0.0020925200000000005
aF0.0022681199999999998
aF0.0009708400000000002
aF0.0025114
aF0.00219056
aF0.00104524
aF0.00271708
aF0.00161636
aF0.0013316
aF0.00176296
aF0.00153148
aF0.0016332800000000002
ass(g42
I16
tp239
(dp240
g13
(lp241
F0.6507476000000041
aF0.6337751999999992
aF0.6569700000000026
aF0.6898054399999995
aF0.644491600000001
aF0.645375080000001
aF0.6332061599999951
aF0.6662944799999954
aF0.643509840000004
aF0.6009515599999993
aF0.6139922000000024
aF0.6679577599999975
aF0.6410325200000033
aF0.6569391999999992
aF0.6567373200000031
aF0.6492068400000011
aF0.6448791999999992
aF0.6128438800000005
aF0.6393710000000005
aF0.6897065200000019
aF0.605484560000001
aF0.6356900000000022
aF0.6513482399999975
aF0.6360772000000002
aF0.6385415999999949
aF0.6107661200000016
aF0.5869770799999998
aF0.6771197200000035
aF0.6337776800000019
aF0.6807346799999938
aF0.6301122400000001
aF0.6125050800000017
aF0.6393357600000013
aF0.6399340400000039
aF0.6527644399999983
aF0.6506624800000033
aF0.6287807599999978
aF0.6357417999999989
aF0.6081998799999974
aF0.60775276
aF0.6830518000000002
aF0.6414499199999987
aF0.6256573200000012
aF0.6514805600000044
aF0.6778180000000007
aF0.6363396000000021
aF0.6310548399999988
aF0.6777531600000031
aF0.6057724799999986
aF0.6365472799999993
ass(g235
I24
tp242
(dp243
g13
(lp244
F0.00134832
aF0.0015201600000000002
aF0.00234948
aF0.00177844
aF0.0013598400000000002
aF0.0016287600000000001
aF0.0019653599999999998
aF0.00102944
aF0.00125828
aF0.0019190000000000001
aF0.0018784400000000003
aF0.0021883600000000007
aF0.00243948
aF0.0015929999999999998
aF0.001407
aF0.0017543200000000004
aF0.0018322000000000002
aF0.00140908
aF0.0023694400000000004
aF0.0019359200000000003
aF0.00176052
aF0.00169616
aF0.0010211200000000001
aF0.0011619999999999998
aF0.0019114800000000001
aF0.0012930000000000003
aF0.00133348
aF0.0029056400000000006
aF0.00149944
aF0.0012598
aF0.0028680400000000005
aF0.00118876
aF0.0025551999999999997
aF0.00129556
aF0.0016409600000000001
aF0.0021919200000000004
aF0.0018726400000000003
aF0.0018970800000000004
aF0.0020312000000000004
aF0.00175476
aF0.00251488
aF0.0024081199999999997
aF0.0019447199999999996
aF0.00129336
aF0.0021186
aF0.0020135200000000004
aF0.0016756800000000001
aF0.0020199199999999997
aF0.0016753199999999999
aF0.00118264
ass(g1
(g5
S'\x00\x00\x00\x00\x00\x00\xe8?'
p245
tp246
Rp247
I32
tp248
(dp249
g13
(lp250
F0.1404205600000003
aF0.15707019999999985
aF0.17336883999999997
aF0.14053216000000013
aF0.13433772000000005
aF0.13078436000000007
aF0.12273903999999983
aF0.13571432000000005
aF0.14144739999999997
aF0.15205176000000004
aF0.14443855999999988
aF0.14671407999999989
aF0.14854320000000007
aF0.15297867999999987
aF0.1269630400000002
aF0.13564435999999996
aF0.14855188000000016
aF0.14734976000000005
aF0.1434404000000001
aF0.14997236000000005
aF0.13936463999999982
aF0.14406695999999997
aF0.12885272000000023
aF0.14238580000000015
aF0.14926332000000012
aF0.14035392000000016
aF0.12648103999999996
aF0.14889644000000002
aF0.14515711999999995
aF0.1532399999999999
aF0.16233788000000013
aF0.15651547999999998
aF0.1622754799999999
aF0.158242
aF0.17062263999999988
aF0.1529541199999999
aF0.14336671999999995
aF0.1503608799999999
aF0.13933863999999985
aF0.14163324
aF0.12858324000000015
aF0.14311496000000015
aF0.1656411600000001
aF0.13859360000000018
aF0.1494293200000001
aF0.14318652000000007
aF0.15063319999999997
aF0.14903852000000006
aF0.15589000000000003
aF0.14781444000000019
ass(g247
I8
tp251
(dp252
g13
(lp253
F0.3058457600000001
aF0.35130616000000026
aF0.3374441200000009
aF0.27830468000000025
aF0.3158684800000001
aF0.30208895999999974
aF0.28294103999999953
aF0.27836492000000046
aF0.33867264000000125
aF0.3615780000000004
aF0.3610997600000009
aF0.32285339999999946
aF0.2726483599999998
aF0.3059791599999993
aF0.2969135600000002
aF0.3059724399999995
aF0.3356327199999988
aF0.3095552800000004
aF0.3448389999999999
aF0.34430783999999937
aF0.3370552399999993
aF0.3022526000000004
aF0.28697524000000013
aF0.3122466000000006
aF0.3066782000000001
aF0.31422983999999976
aF0.31364952
aF0.3016290799999997
aF0.3102786
aF0.2990631999999998
aF0.2965446400000002
aF0.30525571999999984
aF0.28045088000000007
aF0.3081155600000005
aF0.30312508000000016
aF0.31440004000000077
aF0.3164943600000002
aF0.37084051999999934
aF0.33558280000000046
aF0.3198919599999997
aF0.3307660399999998
aF0.28621115999999963
aF0.3180021999999994
aF0.3289038799999998
aF0.3389734799999995
aF0.3276243200000001
aF0.28544747999999986
aF0.29961107999999964
aF0.3130387599999996
aF0.3249503599999996
ass(g184
I24
tp254
(dp255
g13
(lp256
F0.010731999999999997
aF0.010167799999999998
aF0.013086119999999998
aF0.00725944
aF0.009611239999999998
aF0.009438120000000001
aF0.008949680000000002
aF0.011596039999999995
aF0.01093348
aF0.010431440000000009
aF0.010029040000000001
aF0.009634960000000003
aF0.00796836
aF0.009867440000000003
aF0.0112372
aF0.00904188
aF0.00762156
aF0.010634079999999999
aF0.007515800000000002
aF0.009687879999999998
aF0.008281199999999999
aF0.010748519999999996
aF0.008672039999999999
aF0.008621560000000002
aF0.010599840000000001
aF0.01202844
aF0.009000319999999997
aF0.010794000000000002
aF0.014335999999999998
aF0.00928508
aF0.007798240000000002
aF0.008854439999999998
aF0.012663160000000001
aF0.010020999999999999
aF0.010442120000000001
aF0.010329520000000003
aF0.010504439999999995
aF0.008320040000000003
aF0.007088800000000001
aF0.010807960000000002
aF0.01027444
aF0.0086268
aF0.00860272
aF0.008963239999999997
aF0.006177600000000001
aF0.009550320000000001
aF0.009389159999999999
aF0.00723052
aF0.0075542
aF0.009510280000000001
ass(g10
I8
tp257
(dp258
g13
(lp259
F0.028975400000000005
aF0.020780920000000015
aF0.02189063999999999
aF0.027087200000000016
aF0.02487824000000001
aF0.01469736
aF0.029833320000000007
aF0.029570480000000017
aF0.019165159999999994
aF0.025756079999999994
aF0.022212279999999994
aF0.019169120000000005
aF0.016885239999999992
aF0.022886920000000005
aF0.028489800000000003
aF0.028520999999999994
aF0.018788519999999993
aF0.02262856
aF0.024940639999999997
aF0.020538359999999988
aF0.022994959999999988
aF0.021869719999999995
aF0.022642880000000004
aF0.024805919999999985
aF0.024716279999999993
aF0.02625587999999999
aF0.02850504
aF0.02489712
aF0.02125244
aF0.021921760000000002
aF0.028617800000000027
aF0.018956199999999993
aF0.022148880000000006
aF0.01911139999999999
aF0.02884527999999999
aF0.023828279999999993
aF0.017432040000000003
aF0.019392080000000006
aF0.020809679999999997
aF0.022471720000000004
aF0.019631560000000003
aF0.0196538
aF0.028548880000000006
aF0.025891799999999996
aF0.02655380000000001
aF0.022303280000000005
aF0.022605120000000006
aF0.024310119999999998
aF0.021495480000000008
aF0.023517120000000002
ass(g1
(g5
S'\x9a\x99\x99\x99\x99\x99\xb9?'
p260
tp261
Rp262
I6
tp263
(dp264
g32
(lp265
F0.0005966400000000001
aF0.0009492800000000002
aF0.0007949599999999999
aF0.00130072
aF0.0019593200000000005
aF0.00103752
aF0.00132892
aF0.0008147200000000001
aF0.0013144
aF0.00135344
aF0.00215948
aF0.0012269199999999998
aF0.00120564
aF0.0014775200000000002
aF0.0016406799999999998
aF0.0019479200000000001
aF0.0011120000000000001
aF0.0010182400000000001
aF0.0017195599999999998
aF0.0013612000000000001
aF0.0015160800000000002
aF0.0019246399999999998
aF0.0016116
aF0.0019559200000000003
aF0.0013728400000000002
aF0.0015237599999999999
aF0.0013355200000000002
aF0.0005526400000000001
aF0.00175136
aF0.0014119199999999997
aF0.00118124
aF0.0016534
aF0.0014626800000000003
aF0.0012345199999999998
aF0.00106632
aF0.0009477600000000001
aF0.00099956
aF0.0009536000000000001
aF0.0012959199999999999
aF0.0021909600000000005
aF0.0016147200000000003
aF0.00129696
aF0.0013286000000000003
aF0.00094448
aF0.00110556
aF0.00058892
aF0.0011695999999999998
aF0.0006132799999999999
aF0.0014268
aF0.0015148000000000004
ass(g1
(g5
S'\x9a\x99\x99\x99\x99\x99\xe1?'
p266
tp267
Rp268
I32
tp269
(dp270
g13
(lp271
F0.03728719999999997
aF0.03973256000000003
aF0.03684259999999997
aF0.02127140000000001
aF0.023055320000000008
aF0.028826400000000002
aF0.02890911999999999
aF0.034210800000000006
aF0.03030432
aF0.03329260000000001
aF0.03182896000000002
aF0.03223447999999999
aF0.031121279999999998
aF0.028964
aF0.034368079999999974
aF0.031132079999999993
aF0.030120359999999985
aF0.028042920000000002
aF0.033470279999999984
aF0.037939560000000025
aF0.03291392000000003
aF0.028434840000000017
aF0.03074568000000001
aF0.03150852
aF0.02709952000000001
aF0.03222288
aF0.03241304000000002
aF0.031005519999999995
aF0.03520664000000001
aF0.029648400000000002
aF0.02705236
aF0.035216359999999995
aF0.03356643999999999
aF0.02586432
aF0.03726564000000001
aF0.028923480000000005
aF0.031927400000000015
aF0.036390519999999996
aF0.03127428000000002
aF0.032265880000000025
aF0.026921119999999982
aF0.039332679999999995
aF0.03240172000000001
aF0.028647999999999983
aF0.034469880000000015
aF0.03574807999999999
aF0.028821920000000004
aF0.02834524000000002
aF0.03659220000000002
aF0.03453236000000001
ass(g1
(g5
S'433333\xeb?'
p272
tp273
Rp274
I8
tp275
(dp276
g13
(lp277
F0.5858001999999998
aF0.6306348000000008
aF0.5812145999999988
aF0.5895651200000004
aF0.5920776400000023
aF0.5598952800000001
aF0.6126397600000012
aF0.587803639999997
aF0.6042214800000024
aF0.5795028400000016
aF0.5975937600000018
aF0.528402999999999
aF0.6085484399999995
aF0.596122599999998
aF0.5700644400000043
aF0.6178368000000003
aF0.5581549599999988
aF0.5275418000000005
aF0.5960683600000003
aF0.5823984399999996
aF0.5716204799999988
aF0.5998853599999981
aF0.6531636399999973
aF0.5641507599999983
aF0.5826123200000006
aF0.6112498399999983
aF0.5692024400000004
aF0.5988720000000022
aF0.5634571600000016
aF0.5359747600000004
aF0.5902717200000019
aF0.6271144799999989
aF0.5657267999999985
aF0.5779062400000018
aF0.5882677999999989
aF0.5737187200000011
aF0.5459030400000011
aF0.5329634799999983
aF0.5619795999999991
aF0.564971120000001
aF0.5756285600000003
aF0.5576903999999999
aF0.5691531599999997
aF0.5864589600000005
aF0.5621032000000006
aF0.6046914399999995
aF0.5732580399999985
aF0.5105490000000011
aF0.5954209199999988
aF0.5923960399999977
ass(g109
I24
tp278
(dp279
g13
(lp280
F0.0011214
aF0.0008782
aF0.00105808
aF0.0015231200000000002
aF0.0012062000000000002
aF0.0017724000000000001
aF0.00136712
aF0.00104648
aF0.00112204
aF0.0008767600000000001
aF0.0015538000000000004
aF0.0024809199999999997
aF0.0017239199999999999
aF0.00127172
aF0.0007412800000000001
aF0.0006058400000000001
aF0.00111764
aF0.0012025599999999999
aF0.0020182
aF0.001165
aF0.00102796
aF0.0030197600000000002
aF0.00279436
aF0.0008764
aF0.00066216
aF0.00108128
aF0.0007424
aF0.0012422800000000001
aF0.00170088
aF0.00249108
aF0.0010996
aF0.0018736800000000002
aF0.0009079200000000001
aF0.00215496
aF0.0011104799999999998
aF0.0013242400000000002
aF0.00143012
aF0.00167184
aF0.00145632
aF0.00099284
aF0.0011638
aF0.0015459600000000003
aF0.0012828
aF0.0009560799999999999
aF0.0013370799999999998
aF0.0018062400000000002
aF0.0019774000000000003
aF0.0016826000000000002
aF0.0017257600000000002
aF0.00198512
ass(g136
I16
tp281
(dp282
g13
(lp283
F0.15666260000000018
aF0.14614699999999992
aF0.15127900000000036
aF0.13233507999999994
aF0.16824311999999997
aF0.1386696000000001
aF0.15215168000000004
aF0.13513864000000003
aF0.1726493999999999
aF0.14896656000000005
aF0.14890496000000014
aF0.1339470400000001
aF0.16314028000000005
aF0.1611766
aF0.14009523999999998
aF0.12876288000000008
aF0.13132148000000005
aF0.14778612
aF0.14828235999999992
aF0.12851552000000027
aF0.15465291999999997
aF0.15298331999999978
aF0.1613800399999998
aF0.14610955999999983
aF0.14672847999999994
aF0.1568109199999999
aF0.14818988000000016
aF0.16210439999999993
aF0.15093668000000002
aF0.15649116000000013
aF0.1633472000000003
aF0.14364676000000015
aF0.15575940000000005
aF0.13116336000000012
aF0.14248440000000012
aF0.12708836
aF0.1407571200000001
aF0.14662275999999994
aF0.17144228000000009
aF0.13173979999999993
aF0.16206636000000002
aF0.15532971999999987
aF0.13557447999999991
aF0.16525660000000006
aF0.1508860000000002
aF0.14704656000000002
aF0.18169688
aF0.15350035999999975
aF0.15774536000000017
aF0.14143180000000014
ass(g1
(g5
S'\xcd\xcc\xcc\xcc\xcc\xcc\xe4?'
p284
tp285
Rp286
I4
tp287
(dp288
g51
(lp289
F0.021613480000000015
aF0.015121639999999988
aF0.01823323999999999
aF0.019458920000000008
aF0.017917079999999995
aF0.02066999999999998
aF0.011048400000000003
aF0.016915799999999995
aF0.018146279999999997
aF0.01929895999999999
aF0.017199119999999995
aF0.012588120000000005
aF0.02314015999999998
aF0.017057239999999994
aF0.015437000000000003
aF0.010933400000000006
aF0.012498560000000004
aF0.017186960000000015
aF0.016739879999999995
aF0.014895480000000003
aF0.014318039999999994
aF0.013462120000000004
aF0.02250120000000001
aF0.018131160000000004
aF0.016569399999999998
aF0.015254679999999996
aF0.014047360000000004
aF0.016141200000000005
aF0.011750320000000003
aF0.0209424
aF0.016715719999999996
aF0.01719267999999998
aF0.017167160000000004
aF0.017799879999999983
aF0.011249919999999997
aF0.01898376
aF0.023556960000000002
aF0.013120600000000008
aF0.016826
aF0.016466360000000013
aF0.019324040000000004
aF0.018066279999999994
aF0.01671667999999999
aF0.012740560000000001
aF0.02075296000000002
aF0.018318479999999998
aF0.01584899999999999
aF0.02527336
aF0.014396839999999998
aF0.012443840000000001
ass(g23
I24
tp290
(dp291
g13
(lp292
F0.00550808
aF0.0050206800000000005
aF0.007191479999999999
aF0.00572736
aF0.004754800000000001
aF0.0075444
aF0.00930708
aF0.007437760000000001
aF0.006843000000000003
aF0.007673279999999999
aF0.00692416
aF0.007827119999999998
aF0.00850576
aF0.006031
aF0.00517336
aF0.006821360000000002
aF0.006879360000000001
aF0.006808679999999999
aF0.006732640000000001
aF0.006880679999999999
aF0.007979240000000004
aF0.006801600000000001
aF0.0070732799999999995
aF0.006380119999999999
aF0.00398712
aF0.006267160000000001
aF0.004346240000000001
aF0.00799732
aF0.00900476
aF0.00674172
aF0.006721720000000002
aF0.0065331600000000005
aF0.005180520000000001
aF0.006130479999999998
aF0.00634076
aF0.0073698
aF0.007554120000000003
aF0.0062252400000000025
aF0.008599879999999999
aF0.006678120000000001
aF0.00460892
aF0.0057366
aF0.006978839999999999
aF0.00485032
aF0.00743384
aF0.008061720000000001
aF0.0073941200000000006
aF0.006842400000000001
aF0.00586636
aF0.0052210000000000025
ass(g274
I16
tp293
(dp294
g13
(lp295
F0.4460169599999995
aF0.4102318800000014
aF0.43815268000000146
aF0.4257538799999991
aF0.4584203599999982
aF0.4315090799999995
aF0.4333513600000013
aF0.44009020000000115
aF0.42210324000000077
aF0.41752984000000204
aF0.42101220000000067
aF0.37818803999999984
aF0.42244452000000005
aF0.4254313999999998
aF0.4010573200000005
aF0.4150448000000002
aF0.43607567999999935
aF0.3888225200000002
aF0.4854306399999998
aF0.4549803599999986
aF0.4320505600000011
aF0.4439666799999995
aF0.4427790400000015
aF0.4354464800000001
aF0.4167384800000003
aF0.4162908800000001
aF0.4411112399999997
aF0.4379592799999996
aF0.4393195999999999
aF0.42526284
aF0.41666808000000133
aF0.40388136000000036
aF0.40723928000000015
aF0.439504800000001
aF0.3941065599999998
aF0.43829264000000057
aF0.3787063200000006
aF0.3709494399999995
aF0.37083491999999946
aF0.43743348000000126
aF0.44302299999999917
aF0.4049953199999993
aF0.43933036000000014
aF0.4515286400000003
aF0.3998090399999994
aF0.41612492000000095
aF0.4195916799999991
aF0.4102919200000006
aF0.4139423599999999
aF0.4152937999999999
ass(g199
I8
tp296
(dp297
g13
(lp298
F0.00222032
aF0.004654
aF0.0029972399999999995
aF0.0022508
aF0.0025014
aF0.00195476
aF0.00223616
aF0.00303616
aF0.0030938
aF0.0021575199999999996
aF0.0019697600000000005
aF0.004576360000000001
aF0.00255376
aF0.00258032
aF0.0024798399999999996
aF0.0022411600000000003
aF0.0024710800000000005
aF0.0035352399999999994
aF0.00434876
aF0.0014841999999999998
aF0.0035254800000000005
aF0.00297368
aF0.0024165199999999997
aF0.0029324
aF0.00191824
aF0.00323084
aF0.0018228000000000005
aF0.002175
aF0.003531399999999999
aF0.0029100000000000003
aF0.00296584
aF0.003027800000000001
aF0.00212268
aF0.0034032399999999997
aF0.0024790399999999996
aF0.0020798400000000003
aF0.0029527999999999993
aF0.0018838799999999999
aF0.0026137200000000004
aF0.0037731199999999996
aF0.0021208
aF0.00230316
aF0.0034706000000000003
aF0.0030718399999999993
aF0.002909400000000001
aF0.0022984
aF0.0024974800000000003
aF0.0016950399999999999
aF0.00206256
aF0.00224688
ass(g1
(g5
S'\x9a\x99\x99\x99\x99\x99\xc9?'
p299
tp300
Rp301
I4
tp302
(dp303
g51
(lp304
F0.0011073200000000002
aF0.0012425600000000002
aF0.0011160399999999998
aF0.0006352
aF0.0012912000000000002
aF0.00103192
aF0.00149896
aF0.00091348
aF0.00190236
aF0.0013874800000000004
aF0.00130156
aF0.00140936
aF0.00054088
aF0.0009738
aF0.0007024
aF0.00208444
aF0.0014358
aF0.00100136
aF0.0009636800000000002
aF0.00064064
aF0.00112388
aF0.0011876
aF0.0008171200000000001
aF0.00128488
aF0.00112768
aF0.0009905200000000002
aF0.0011476400000000001
aF0.0006628000000000001
aF0.0013529599999999998
aF0.0007682400000000001
aF0.00182712
aF0.0017460800000000001
aF0.00092712
aF0.00205228
aF0.0008042400000000001
aF0.0010549600000000002
aF0.00049764
aF0.00129676
aF0.0016658000000000005
aF0.00116864
aF0.0007694800000000001
aF0.00089968
aF0.00150296
aF0.0013922000000000001
aF0.0006386800000000001
aF0.0017284400000000001
aF0.00103796
aF0.00117516
aF0.0007451600000000001
aF0.0012362000000000002
ass(g274
I32
tp305
(dp306
g13
(lp307
F0.2664766000000003
aF0.24657079999999953
aF0.2542962
aF0.2806146400000001
aF0.26896584000000046
aF0.23743436000000012
aF0.2681720000000005
aF0.29344116000000103
aF0.2727073999999999
aF0.2532198000000004
aF0.23926155999999982
aF0.25313419999999986
aF0.26439404000000016
aF0.2790285599999998
aF0.24927035999999972
aF0.2565887999999996
aF0.2638242399999997
aF0.27550844000000024
aF0.2536315599999998
aF0.2513434399999999
aF0.24973811999999984
aF0.29408536000000024
aF0.2438353200000002
aF0.2553133199999999
aF0.24789951999999985
aF0.2750727999999998
aF0.26663144000000005
aF0.26478272000000064
aF0.28483660000000016
aF0.28269128000000115
aF0.29493643999999963
aF0.2846475199999996
aF0.2722859999999998
aF0.23871167999999957
aF0.2584912400000001
aF0.2618590000000005
aF0.2758593599999995
aF0.2670133199999999
aF0.2880701200000003
aF0.26665248000000047
aF0.2675724399999994
aF0.25581852000000027
aF0.2493070799999996
aF0.2813158400000002
aF0.2707694399999999
aF0.24788448000000013
aF0.24942751999999993
aF0.2595315199999998
aF0.24462095999999928
aF0.2680933200000005
ass(g172
I16
tp308
(dp309
g13
(lp310
F0.34250796000000056
aF0.3337234400000006
aF0.3447048800000001
aF0.3217071200000009
aF0.3261079199999993
aF0.27046300000000006
aF0.28135239999999984
aF0.30123171999999965
aF0.30665748000000076
aF0.31823284000000024
aF0.3181870400000001
aF0.31805103999999973
aF0.34114612000000116
aF0.3166483600000005
aF0.30872976000000024
aF0.34423623999999925
aF0.31083396000000024
aF0.34210127999999945
aF0.3205592400000004
aF0.3321729200000002
aF0.32871347999999945
aF0.3251311200000003
aF0.34669404000000015
aF0.3420359199999993
aF0.33046596000000145
aF0.2812798399999996
aF0.3244131600000004
aF0.32467588000000047
aF0.33177108000000105
aF0.30809044000000035
aF0.32619743999999967
aF0.3339927600000002
aF0.2865248800000001
aF0.3165607200000004
aF0.30355072000000066
aF0.2805891600000004
aF0.2990555599999999
aF0.3211392400000011
aF0.3448836000000005
aF0.2880246800000007
aF0.3073232000000002
aF0.3303221200000004
aF0.3018577600000003
aF0.30653720000000084
aF0.31397148000000075
aF0.31619920000000085
aF0.32083724000000113
aF0.3009735999999992
aF0.33448504000000157
aF0.3456280399999993
ass(g1
(g5
S'gfffff\xd6?'
p311
tp312
Rp313
I6
tp314
(dp315
g32
(lp316
F0.004260400000000002
aF0.00509336
aF0.004361240000000001
aF0.0034657600000000005
aF0.0046362
aF0.0035995199999999997
aF0.00629
aF0.006482559999999999
aF0.0034820399999999996
aF0.0043898800000000005
aF0.003559240000000001
aF0.005606759999999999
aF0.0067018
aF0.0037275999999999998
aF0.006233240000000001
aF0.004936320000000002
aF0.004968639999999999
aF0.004388199999999998
aF0.00414176
aF0.00734332
aF0.004730440000000001
aF0.007988520000000002
aF0.00486824
aF0.006567160000000003
aF0.0062210799999999995
aF0.006442439999999998
aF0.004812320000000001
aF0.004971440000000001
aF0.005585000000000002
aF0.00439292
aF0.00695364
aF0.004761160000000002
aF0.005463160000000001
aF0.004042800000000001
aF0.005463319999999999
aF0.0033894400000000005
aF0.00612372
aF0.00455996
aF0.00539008
aF0.005622560000000001
aF0.0050662
aF0.0053684000000000015
aF0.00579348
aF0.004046000000000001
aF0.004598
aF0.006127039999999999
aF0.005736720000000002
aF0.005073920000000002
aF0.00390444
aF0.007206440000000001
ass(g268
I8
tp317
(dp318
g13
(lp319
F0.035405599999999995
aF0.03604635999999999
aF0.04467728000000006
aF0.04169252000000004
aF0.048439760000000005
aF0.03594283999999998
aF0.04300479999999999
aF0.03956900000000005
aF0.03723567999999999
aF0.0334266
aF0.02832631999999997
aF0.034926959999999986
aF0.02776884000000001
aF0.03798223999999998
aF0.04795424000000007
aF0.05012803999999999
aF0.03875547999999998
aF0.040577680000000026
aF0.03735475999999999
aF0.03173424
aF0.03817116000000004
aF0.041570880000000025
aF0.03419776000000001
aF0.038352679999999986
aF0.034679360000000006
aF0.03664055999999999
aF0.04149971999999999
aF0.03802192000000001
aF0.04406284
aF0.03658672
aF0.03602696
aF0.031496240000000016
aF0.04710856000000002
aF0.03753008
aF0.03681119999999999
aF0.04077628000000002
aF0.03468764
aF0.035982079999999986
aF0.04453627999999995
aF0.04340248000000002
aF0.03225063999999998
aF0.03672776
aF0.03765656000000004
aF0.03129323999999999
aF0.04039068
aF0.043428999999999975
aF0.03794344
aF0.04662831999999998
aF0.03978560000000002
aF0.034570399999999994
ass(g1
(g5
S'\x9a\x99\x99\x99\x99\x99\xe9?'
p320
tp321
Rp322
I6
tp323
(dp324
g32
(lp325
F0.4282283599999995
aF0.3814985200000003
aF0.4309013599999985
aF0.4027075999999996
aF0.41362588000000006
aF0.4117214400000012
aF0.40403668000000076
aF0.406145399999999
aF0.3870490800000014
aF0.400635079999999
aF0.4616690799999992
aF0.40343360000000084
aF0.3936974000000005
aF0.39357324
aF0.4527579200000002
aF0.4279025599999993
aF0.37528732000000053
aF0.3827829999999986
aF0.43460924000000006
aF0.38120152000000057
aF0.3964254799999984
aF0.43672176000000057
aF0.4324167599999991
aF0.37910400000000033
aF0.40405751999999895
aF0.41690487999999953
aF0.3735283999999987
aF0.3770383599999999
aF0.41695492000000045
aF0.39983364
aF0.4161997199999982
aF0.4197548799999986
aF0.39783451999999947
aF0.4638129600000001
aF0.3795203999999998
aF0.4419496399999993
aF0.4509808799999989
aF0.4141970800000007
aF0.3963449600000009
aF0.4059732399999999
aF0.4459032000000004
aF0.42663712000000015
aF0.37755667999999987
aF0.3737514000000004
aF0.4210207599999993
aF0.39260288000000043
aF0.41923244000000004
aF0.4093451999999989
aF0.41346112000000057
aF0.4331690000000004
ass(g1
(g5
S'\x00\x00\x00\x00\x00\x00\xd0?'
p326
tp327
Rp328
I4
tp329
(dp330
g51
(lp331
F0.00151708
aF0.00121992
aF0.00127952
aF0.00093316
aF0.0015483600000000004
aF0.0011383600000000002
aF0.00047052
aF0.00143208
aF0.00110704
aF0.0015202400000000002
aF0.0009746000000000002
aF0.0016593599999999997
aF0.0019299600000000003
aF0.00088492
aF0.0007515200000000002
aF0.0010760400000000003
aF0.00140852
aF0.00115548
aF0.0006396
aF0.0014328799999999999
aF0.0015217199999999998
aF0.00054108
aF0.0008239200000000001
aF0.0018116
aF0.0013750400000000001
aF0.00102808
aF0.0005976400000000001
aF0.0015470000000000002
aF0.0013954000000000002
aF0.00094216
aF0.0017604399999999998
aF0.00161296
aF0.00131908
aF0.0006558400000000002
aF0.0017024
aF0.00132004
aF0.0020415200000000002
aF0.0013473200000000002
aF0.00205624
aF0.0009851200000000001
aF0.00161328
aF0.0010654800000000002
aF0.0015659600000000001
aF0.0020224400000000003
aF0.0012324
aF0.0010222
aF0.0021073600000000004
aF0.0014100000000000002
aF0.00091916
aF0.00090572
ass(g217
I32
tp332
(dp333
g13
(lp334
F0.00300268
aF0.00366452
aF0.003899079999999999
aF0.0013161600000000002
aF0.0026020799999999997
aF0.00154644
aF0.00310608
aF0.0021276400000000005
aF0.0026101600000000003
aF0.002960000000000001
aF0.0016058000000000001
aF0.0034764000000000015
aF0.0026220799999999997
aF0.00215308
aF0.00223064
aF0.00260812
aF0.0026232800000000004
aF0.0031413999999999995
aF0.0021965599999999997
aF0.004016560000000001
aF0.0019738800000000003
aF0.00376852
aF0.0023405600000000006
aF0.0028601200000000007
aF0.00187272
aF0.0023061600000000002
aF0.002585
aF0.00263956
aF0.00287792
aF0.00301164
aF0.00184004
aF0.0034441199999999997
aF0.0025923599999999997
aF0.0015304399999999999
aF0.00244656
aF0.00285108
aF0.0030022000000000004
aF0.00122872
aF0.0024593999999999996
aF0.0018849200000000002
aF0.0018754800000000001
aF0.0020406400000000002
aF0.00132496
aF0.0026187599999999995
aF0.00183256
aF0.003345280000000001
aF0.0026624400000000003
aF0.0027434
aF0.0024652000000000003
aF0.00237244
ass(g76
I16
tp335
(dp336
g13
(lp337
F0.00493136
aF0.00549312
aF0.004536920000000001
aF0.00301916
aF0.0033460799999999995
aF0.003514360000000001
aF0.0037524799999999986
aF0.005383799999999999
aF0.0033786400000000005
aF0.003935280000000001
aF0.00317776
aF0.0052332800000000025
aF0.00529028
aF0.00463856
aF0.0029392799999999994
aF0.0041456800000000005
aF0.0038094800000000014
aF0.004624720000000001
aF0.00445224
aF0.0039818399999999995
aF0.005172680000000001
aF0.0053494000000000015
aF0.0025088400000000005
aF0.0045701199999999996
aF0.005190239999999999
aF0.0035107600000000004
aF0.00316708
aF0.003875280000000001
aF0.004683240000000001
aF0.0033868399999999995
aF0.005970079999999999
aF0.0035123999999999997
aF0.00412936
aF0.0025176000000000005
aF0.00440472
aF0.0029474400000000004
aF0.0044560400000000005
aF0.00401728
aF0.004334680000000001
aF0.004418479999999999
aF0.0065466
aF0.0038535600000000007
aF0.0036416400000000002
aF0.006308320000000001
aF0.005585959999999999
aF0.004306279999999999
aF0.00521668
aF0.005095400000000001
aF0.0045489599999999995
aF0.004805720000000001
ass(g1
(g5
S'\x9a\x99\x99\x99\x99\x99\xe1?'
p338
tp339
Rp340
I4
tp341
(dp342
g51
(lp343
F0.00819536
aF0.0071958000000000005
aF0.0067430799999999985
aF0.0038698400000000016
aF0.0078088
aF0.004078840000000001
aF0.005203080000000001
aF0.007056999999999997
aF0.00511092
aF0.00531916
aF0.006161040000000001
aF0.0057130800000000015
aF0.0053060799999999995
aF0.0061933599999999984
aF0.008654159999999996
aF0.005769759999999999
aF0.00637492
aF0.006386560000000002
aF0.006421199999999998
aF0.006083240000000002
aF0.005329440000000002
aF0.005433760000000001
aF0.008521520000000001
aF0.007079680000000001
aF0.006517079999999999
aF0.005437960000000002
aF0.00687896
aF0.0059998
aF0.006546800000000001
aF0.007636720000000002
aF0.006200360000000001
aF0.006853360000000001
aF0.006621239999999999
aF0.010557919999999998
aF0.009003960000000004
aF0.00594744
aF0.00540044
aF0.004538919999999999
aF0.005210160000000001
aF0.007093160000000003
aF0.005551160000000004
aF0.007849639999999998
aF0.005154640000000002
aF0.006027799999999998
aF0.007297200000000001
aF0.006176920000000001
aF0.006093
aF0.006520040000000001
aF0.00596984
aF0.006954799999999999
ass(g235
I16
tp344
(dp345
g13
(lp346
F0.001731
aF0.00165604
aF0.0023142400000000004
aF0.00123448
aF0.0010119999999999999
aF0.00211548
aF0.0012133200000000002
aF0.00189476
aF0.0014030800000000001
aF0.0021289599999999996
aF0.0013736
aF0.00246092
aF0.0014980800000000004
aF0.0017162400000000002
aF0.0012830799999999998
aF0.0025659600000000004
aF0.0013725600000000003
aF0.0021804800000000003
aF0.0015630000000000002
aF0.0020608799999999997
aF0.0012200800000000001
aF0.0015760799999999999
aF0.0016742400000000002
aF0.00121468
aF0.00214184
aF0.00084252
aF0.00131424
aF0.00242364
aF0.00094908
aF0.0022039600000000005
aF0.0015636000000000003
aF0.0025418000000000003
aF0.00120396
aF0.00073928
aF0.00083784
aF0.0013741600000000001
aF0.0020500400000000004
aF0.00178788
aF0.0021661999999999996
aF0.001176
aF0.00225392
aF0.00222688
aF0.00103148
aF0.00195312
aF0.00204628
aF0.00277812
aF0.0017383600000000002
aF0.0017968
aF0.00125508
aF0.0013264400000000001
ass(g1
(g5
S'\x00\x00\x00\x00\x00\x00\xe8?'
p347
tp348
Rp349
I4
tp350
(dp351
g51
(lp352
F0.05838572000000005
aF0.053210159999999986
aF0.059164439999999964
aF0.05334027999999999
aF0.06855516000000002
aF0.050625079999999996
aF0.05397452000000002
aF0.06271956000000006
aF0.038127359999999985
aF0.05812868000000006
aF0.07587051999999991
aF0.06452991999999999
aF0.06403460000000007
aF0.043242799999999984
aF0.051230000000000026
aF0.04875968000000003
aF0.06191484000000001
aF0.05385276000000001
aF0.04669692000000005
aF0.04659047999999996
aF0.0421928
aF0.06682184
aF0.041242159999999986
aF0.04863088000000002
aF0.05729416
aF0.05023115999999998
aF0.07012248000000003
aF0.048439560000000007
aF0.06078160000000001
aF0.05839907999999996
aF0.047553920000000034
aF0.045163559999999964
aF0.05169296000000001
aF0.05403107999999998
aF0.057874280000000035
aF0.049268560000000065
aF0.04482619999999998
aF0.05905620000000004
aF0.06580784
aF0.07274772
aF0.05033915999999999
aF0.05626624
aF0.05757344000000006
aF0.05424263999999998
aF0.046869200000000034
aF0.06896391999999996
aF0.05255483999999997
aF0.04879296000000003
aF0.05712108000000002
aF0.06785503999999996
ass(g1
(g5
S'\xcd\xcc\xcc\xcc\xcc\xcc\xe4?'
p353
tp354
Rp355
I6
tp356
(dp357
g32
(lp358
F0.10537168000000006
aF0.10004115999999998
aF0.09191544000000003
aF0.10344416000000006
aF0.1140701999999999
aF0.10167447999999996
aF0.11893860000000009
aF0.09616804000000015
aF0.09726008000000012
aF0.11859563999999993
aF0.1331529600000001
aF0.10287352000000004
aF0.12002707999999983
aF0.0894908
aF0.10497904
aF0.11299388
aF0.09919808000000004
aF0.09976503999999996
aF0.10302336000000012
aF0.08651768000000004
aF0.09671288000000007
aF0.11745515999999988
aF0.08165256000000012
aF0.11523936000000012
aF0.09916016000000004
aF0.12205584000000018
aF0.11619480000000003
aF0.10746952000000017
aF0.09827383999999999
aF0.10169096
aF0.12119660000000007
aF0.11043051999999999
aF0.08613240000000007
aF0.09617231999999992
aF0.13338288000000004
aF0.11094447999999997
aF0.12378103999999995
aF0.09717576000000007
aF0.09164275999999998
aF0.07713376000000001
aF0.11142783999999997
aF0.0864981599999999
aF0.09307183999999999
aF0.10278295999999992
aF0.10554192
aF0.1109178800000001
aF0.10553652000000005
aF0.10600496000000005
aF0.10875576
aF0.11077887999999995
ass(g97
I32
tp359
(dp360
g13
(lp361
F0.00143056
aF0.00078156
aF0.0024010800000000003
aF0.0030860400000000004
aF0.00100004
aF0.0006129600000000001
aF0.00123944
aF0.00140704
aF0.0013156
aF0.0009891600000000002
aF0.0005407999999999999
aF0.0013128000000000003
aF0.0014420000000000001
aF0.0014352000000000002
aF0.001163
aF0.00064508
aF0.0017746000000000003
aF0.00156072
aF0.0014994399999999999
aF0.0009230800000000001
aF0.0009834000000000002
aF0.0010492400000000001
aF0.0004564
aF0.00104144
aF0.00104148
aF0.00082892
aF0.0011623599999999999
aF0.0019115999999999996
aF0.00045488
aF0.0010399200000000002
aF0.00081392
aF0.00071156
aF0.0009298800000000001
aF0.0012257599999999998
aF0.00149148
aF0.00127772
aF0.0011738800000000002
aF0.00072288
aF0.00094436
aF0.0013810000000000003
aF0.00062396
aF0.00076032
aF0.00075208
aF0.00119612
aF0.00170568
aF0.0014556400000000004
aF0.00124216
aF0.0018884799999999999
aF0.0005105600000000001
aF0.00090848
ass(g1
(g5
S'\x9a\x99\x99\x99\x99\x99\xc9?'
p362
tp363
Rp364
I6
tp365
(dp366
g32
(lp367
F0.0022676000000000003
aF0.0023942
aF0.00197236
aF0.0018359600000000002
aF0.0018151199999999997
aF0.00141172
aF0.0017828800000000004
aF0.0025091199999999997
aF0.0032804400000000004
aF0.00334764
aF0.0023626800000000002
aF0.0015267600000000003
aF0.00123592
aF0.00233684
aF0.0018456800000000002
aF0.00161004
aF0.0024614000000000003
aF0.002849000000000001
aF0.0019292399999999998
aF0.00210508
aF0.002425880000000001
aF0.0024378000000000004
aF0.0016105199999999998
aF0.00154992
aF0.00108876
aF0.0013131600000000003
aF0.00253712
aF0.0013814400000000003
aF0.00107532
aF0.00244716
aF0.0015588000000000002
aF0.00221192
aF0.0023227200000000003
aF0.0020883200000000003
aF0.0022302000000000008
aF0.00182836
aF0.0025294800000000006
aF0.0009396400000000002
aF0.002332920000000001
aF0.0018186
aF0.0022327200000000005
aF0.0020424799999999997
aF0.0023255999999999997
aF0.0008356800000000001
aF0.00157572
aF0.0018973199999999999
aF0.0024942000000000002
aF0.00173692
aF0.00119216
aF0.0018503600000000003
ass(g42
I32
tp368
(dp369
g13
(lp370
F0.41921660000000266
aF0.3803124000000011
aF0.4305491599999999
aF0.425249080000001
aF0.44811416000000054
aF0.40565999999999985
aF0.42123911999999986
aF0.3845214400000018
aF0.4298080400000021
aF0.40971952000000117
aF0.4114895600000005
aF0.418077599999999
aF0.43908080000000055
aF0.4099224399999974
aF0.4283503600000011
aF0.4595966399999991
aF0.4384548400000005
aF0.4309382400000007
aF0.45208424000000014
aF0.41864931999999966
aF0.4166963600000014
aF0.3945109600000003
aF0.425317720000002
aF0.4478186799999994
aF0.4362205200000006
aF0.42649476000000136
aF0.44011791999999983
aF0.3994260800000004
aF0.41541672000000074
aF0.41546292000000085
aF0.4585375199999993
aF0.4281274399999999
aF0.41433420000000065
aF0.3984990000000009
aF0.407852640000002
aF0.4185777199999999
aF0.41815072000000125
aF0.41228672
aF0.4248047200000005
aF0.4243721600000007
aF0.45236039999999933
aF0.42972276000000054
aF0.43197028000000015
aF0.402394280000001
aF0.44608900000000035
aF0.42233060000000044
aF0.4322471600000008
aF0.4194024800000002
aF0.4272884399999996
aF0.4217885999999992
ass(g1
(g5
S'\xcd\xcc\xcc\xcc\xcc\xcc\xec?'
p371
tp372
Rp373
I4
tp374
(dp375
g51
(lp376
F0.21390079999999956
aF0.2560292799999997
aF0.2843446400000004
aF0.2953315599999996
aF0.28019431999999983
aF0.24223807999999994
aF0.2983877600000003
aF0.2568128800000006
aF0.2728166000000007
aF0.21739991999999986
aF0.2549579200000003
aF0.26649420000000024
aF0.27570687999999977
aF0.2807493200000005
aF0.2847145199999995
aF0.2704032400000005
aF0.28031855999999933
aF0.2795049200000005
aF0.3034846400000004
aF0.25403475999999975
aF0.28061203999999973
aF0.29197916000000007
aF0.23048475999999968
aF0.2404952400000002
aF0.31746527999999985
aF0.2699499200000005
aF0.27810340000000056
aF0.2494493999999996
aF0.24162780000000034
aF0.2289570400000001
aF0.2355310400000002
aF0.2713571200000002
aF0.23127820000000024
aF0.2842564400000007
aF0.29293428000000044
aF0.29012648000000035
aF0.23091743999999997
aF0.2963242000000001
aF0.27185816
aF0.24979959999999996
aF0.23365236000000042
aF0.2903422399999997
aF0.2229956399999996
aF0.25252808000000015
aF0.27302656000000025
aF0.2471718399999998
aF0.24121067999999998
aF0.26155863999999984
aF0.27267375999999915
aF0.3293979199999992
ass(g1
(g5
S'\x00\x00\x00\x00\x00\x00\xd0?'
p377
tp378
Rp379
I6
tp380
(dp381
g32
(lp382
F0.0034779200000000007
aF0.00290768
aF0.0032989200000000003
aF0.00236744
aF0.0030800800000000007
aF0.00226568
aF0.0024174400000000007
aF0.00177344
aF0.00198292
aF0.0026434399999999995
aF0.002812320000000001
aF0.002346920000000001
aF0.0025517199999999995
aF0.00278356
aF0.0035056399999999995
aF0.00340692
aF0.00190592
aF0.0038747200000000008
aF0.0032894800000000004
aF0.002692000000000001
aF0.00347752
aF0.00225508
aF0.0023240799999999996
aF0.0033919600000000007
aF0.00161988
aF0.0026304000000000006
aF0.0022114
aF0.0036029200000000003
aF0.0033826000000000004
aF0.00157884
aF0.0035053999999999997
aF0.0016950800000000003
aF0.0022402399999999997
aF0.00438196
aF0.0021075200000000003
aF0.0024490000000000002
aF0.0015507600000000002
aF0.00224328
aF0.00171596
aF0.0024683599999999997
aF0.00306632
aF0.0034316400000000006
aF0.0029734399999999995
aF0.00222256
aF0.0026328400000000004
aF0.0029173199999999993
aF0.0023221599999999998
aF0.00296524
aF0.00253692
aF0.00199172
ass(g247
I16
tp383
(dp384
g13
(lp385
F0.23792071999999984
aF0.21864780000000072
aF0.22602871999999993
aF0.23086764000000015
aF0.21161767999999995
aF0.23891736000000047
aF0.2420606399999997
aF0.21538968000000008
aF0.23512676000000007
aF0.20559600000000006
aF0.20179616000000014
aF0.21630024000000073
aF0.20998236
aF0.21581183999999984
aF0.22239792000000005
aF0.25982587999999945
aF0.23334599999999958
aF0.21797284000000006
aF0.25932456000000026
aF0.21988064000000013
aF0.21564011999999952
aF0.2081813599999999
aF0.22773724000000065
aF0.20821244000000022
aF0.2382608800000002
aF0.19492283999999985
aF0.22227180000000035
aF0.21021664000000018
aF0.2574354800000007
aF0.21060524000000022
aF0.25885848000000067
aF0.23868920000000007
aF0.23234036000000033
aF0.22168316000000013
aF0.25851448000000055
aF0.23725155999999975
aF0.23660892000000003
aF0.2204961600000004
aF0.21643823999999992
aF0.24688631999999996
aF0.25253384
aF0.2047596
aF0.22491140000000032
aF0.24911139999999987
aF0.22889691999999956
aF0.23114772000000067
aF0.2152519200000002
aF0.22614832000000004
aF0.25651816000000005
aF0.2019815200000001
ass(g274
I24
tp386
(dp387
g13
(lp388
F0.3441986000000012
aF0.29849020000000026
aF0.33066760000000006
aF0.3285104800000005
aF0.3431504800000004
aF0.3344291600000013
aF0.29847668
aF0.31590767999999986
aF0.30874235999999944
aF0.31948511999999973
aF0.34599676000000124
aF0.32717227999999976
aF0.3272000799999998
aF0.34499828000000055
aF0.3537876799999993
aF0.34221236000000027
aF0.34471056000000194
aF0.3533949600000001
aF0.34777612000000063
aF0.3280911599999995
aF0.32218992000000113
aF0.3163358399999999
aF0.33709523999999996
aF0.3168940000000007
aF0.3157579199999998
aF0.34436940000000016
aF0.3298726399999998
aF0.3447352800000002
aF0.31110403999999947
aF0.327389240000001
aF0.3070092000000008
aF0.3594478000000003
aF0.34771452000000097
aF0.34140811999999976
aF0.32973036000000033
aF0.32256587999999975
aF0.35201804000000064
aF0.34715095999999995
aF0.3047160800000003
aF0.30883088000000025
aF0.3426088400000006
aF0.32068876000000096
aF0.2947129200000001
aF0.3483137200000005
aF0.3232816799999999
aF0.3303172800000001
aF0.3011385999999999
aF0.35226852000000086
aF0.3168350000000001
aF0.3247138800000008
ass(g217
I8
tp389
(dp390
g13
(lp391
F0.00297056
aF0.0012825599999999999
aF0.0015524800000000002
aF0.0025708799999999998
aF0.00254572
aF0.0023154800000000004
aF0.00154816
aF0.0026929200000000006
aF0.00241284
aF0.0016346800000000001
aF0.0024480400000000003
aF0.00220128
aF0.0012745200000000001
aF0.00089092
aF0.0023184000000000004
aF0.0024834800000000006
aF0.0023465200000000004
aF0.00189836
aF0.0016042800000000002
aF0.00231824
aF0.0015739999999999999
aF0.00309408
aF0.0019596
aF0.00227288
aF0.00233328
aF0.0028240800000000005
aF0.0016132800000000001
aF0.0021242
aF0.0016536800000000003
aF0.0018327999999999999
aF0.0019097200000000002
aF0.0027284799999999997
aF0.0019044400000000005
aF0.0017487199999999994
aF0.0021891999999999997
aF0.00239344
aF0.00219872
aF0.00178288
aF0.00226376
aF0.00185232
aF0.00266744
aF0.00209576
aF0.002197
aF0.0026994000000000007
aF0.00229808
aF0.00251264
aF0.0027121199999999997
aF0.0022022000000000005
aF0.0016979200000000001
aF0.00121668
ass(g235
I8
tp392
(dp393
g13
(lp394
F0.0015517999999999999
aF0.00154104
aF0.0008633200000000001
aF0.0016793200000000002
aF0.0016323600000000002
aF0.0017533600000000002
aF0.00159684
aF0.0015466000000000002
aF0.0018503600000000001
aF0.00191932
aF0.0017339199999999997
aF0.0014978800000000003
aF0.00102432
aF0.0017058800000000001
aF0.0017713999999999998
aF0.00084448
aF0.0022422400000000004
aF0.0017625600000000003
aF0.0018222400000000001
aF0.0012627200000000004
aF0.0011052
aF0.0021331600000000003
aF0.0013138800000000001
aF0.00249884
aF0.0018609600000000003
aF0.00236824
aF0.0015453200000000002
aF0.0011436
aF0.00082452
aF0.0014889600000000001
aF0.0028778000000000002
aF0.0017200400000000002
aF0.00132016
aF0.00130752
aF0.00235988
aF0.0019239200000000002
aF0.0013902
aF0.00164412
aF0.00069344
aF0.0015926800000000002
aF0.0013377999999999999
aF0.00205188
aF0.0015074799999999996
aF0.0023919199999999996
aF0.0015946800000000002
aF0.0016017200000000003
aF0.00105224
aF0.00128832
aF0.0019036800000000003
aF0.0018891200000000002
ass(g17
I8
tp395
(dp396
g13
(lp397
F0.06684587999999997
aF0.06596712000000002
aF0.06161971999999999
aF0.07659200000000001
aF0.06422575999999994
aF0.05954615999999995
aF0.07426564000000004
aF0.06436808000000005
aF0.07067332000000004
aF0.05838771999999999
aF0.06511263999999994
aF0.06619912000000004
aF0.08023904000000007
aF0.06053848000000005
aF0.07251136
aF0.06552531999999997
aF0.06401412000000001
aF0.07623924000000006
aF0.07109463999999997
aF0.0707962
aF0.06870352000000002
aF0.06459944000000001
aF0.07081859999999998
aF0.07814068000000002
aF0.07571676000000009
aF0.06803604000000005
aF0.08247112000000001
aF0.07354835999999997
aF0.06855331999999996
aF0.06528844000000002
aF0.07302860000000007
aF0.08330732
aF0.07073455999999993
aF0.05915708000000003
aF0.06972024000000002
aF0.06433064000000006
aF0.06648392000000004
aF0.06352616000000004
aF0.06923235999999997
aF0.07360223999999999
aF0.061429080000000025
aF0.07063860000000002
aF0.07016944
aF0.0729905999999999
aF0.06690399999999996
aF0.07763900000000008
aF0.06535364000000009
aF0.06860760000000003
aF0.0727594
aF0.07197256000000006
ass(g42
I24
tp398
(dp399
g13
(lp400
F0.5158281999999997
aF0.5132886400000013
aF0.5241690800000004
aF0.5322854400000007
aF0.5058341599999986
aF0.5427337599999993
aF0.5127988400000005
aF0.5112569200000011
aF0.5128317200000014
aF0.4750020000000004
aF0.4885298400000004
aF0.5040962800000004
aF0.5710554799999995
aF0.5328893999999993
aF0.4918408399999999
aF0.5341525599999989
aF0.5122921600000038
aF0.4958298800000007
aF0.5503704400000015
aF0.5300471200000016
aF0.5273046000000015
aF0.4956506800000013
aF0.5037264000000007
aF0.4985938799999993
aF0.5132396000000012
aF0.5376454799999992
aF0.5228975600000003
aF0.5220417199999996
aF0.5002171599999999
aF0.52805708
aF0.5254653600000005
aF0.5381836000000013
aF0.5282813599999988
aF0.5158542400000015
aF0.5549291199999957
aF0.542163600000001
aF0.5378903600000007
aF0.5301275600000007
aF0.5202705200000005
aF0.546267119999999
aF0.48280308000000094
aF0.5444908399999998
aF0.5045628800000007
aF0.4828696799999986
aF0.5171622800000003
aF0.5146732799999996
aF0.49905151999999964
aF0.5490118400000014
aF0.5372357999999984
aF0.5112088800000003
ass(g247
I24
tp401
(dp402
g13
(lp403
F0.15389904000000018
aF0.18455420000000008
aF0.16052739999999993
aF0.19704855999999996
aF0.1857594800000003
aF0.1838177599999998
aF0.16638648000000006
aF0.15462624000000028
aF0.17417151999999966
aF0.16830451999999982
aF0.15803492
aF0.19153484000000037
aF0.1771418000000002
aF0.16647084000000004
aF0.16386531999999976
aF0.16686984000000013
aF0.19593211999999977
aF0.16375515999999996
aF0.19008283999999978
aF0.20086360000000006
aF0.15169680000000005
aF0.1698281199999998
aF0.18632355999999992
aF0.1870473999999999
aF0.18375131999999977
aF0.18760424000000006
aF0.19317740000000003
aF0.18662363999999973
aF0.1787472400000002
aF0.17386615999999994
aF0.18300736000000006
aF0.16231088000000005
aF0.16827168
aF0.15831815999999999
aF0.18206635999999982
aF0.18218311999999995
aF0.1664314
aF0.16741287999999993
aF0.18077811999999996
aF0.18343896
aF0.15809868
aF0.17029124
aF0.1747707599999999
aF0.16563124000000026
aF0.16839735999999977
aF0.20348231999999983
aF0.18119072000000014
aF0.16420700000000002
aF0.17239704000000022
aF0.15965347999999996
ass(g172
I32
tp404
(dp405
g13
(lp406
F0.22777600000000006
aF0.19836071999999993
aF0.22131783999999996
aF0.19965151999999997
aF0.21155351999999975
aF0.20149760000000028
aF0.20475952000000028
aF0.19320548000000012
aF0.18068948000000032
aF0.1826499199999998
aF0.17531576000000024
aF0.19563983999999998
aF0.18902
aF0.21863100000000024
aF0.24004644
aF0.1995144799999996
aF0.18482392000000003
aF0.19632552000000006
aF0.18046452000000018
aF0.18773887999999994
aF0.23508336000000016
aF0.18214736000000017
aF0.19806699999999972
aF0.2333035999999998
aF0.20451596000000022
aF0.20454336000000017
aF0.1866545600000003
aF0.18351780000000026
aF0.19938683999999984
aF0.1774551199999999
aF0.22317927999999987
aF0.19066032000000027
aF0.18620800000000012
aF0.20119355999999983
aF0.19078636000000015
aF0.21363399999999994
aF0.17279728000000052
aF0.2019031599999996
aF0.19830115999999978
aF0.2031109600000003
aF0.18879887999999986
aF0.1937529600000001
aF0.20806784000000006
aF0.1778829600000002
aF0.19941652000000012
aF0.22031708000000005
aF0.2050569599999996
aF0.20108820000000005
aF0.22225235999999965
aF0.18966791999999996
ass(g160
I16
tp407
(dp408
g13
(lp409
F0.09434768000000007
aF0.08768859999999995
aF0.10805428
aF0.09750552000000003
aF0.08341128
aF0.08114160000000001
aF0.0903459200000001
aF0.08832479999999997
aF0.10418803999999994
aF0.08800852
aF0.10403296000000002
aF0.11951472000000003
aF0.08848356000000011
aF0.10890424000000011
aF0.08459164000000007
aF0.10380152000000001
aF0.09589040000000001
aF0.11336723999999991
aF0.10805020000000001
aF0.09000380000000005
aF0.11656811999999997
aF0.09324164
aF0.10161499999999994
aF0.10677928
aF0.09323508000000011
aF0.09539224000000004
aF0.09506636000000007
aF0.10118971999999996
aF0.11038295999999995
aF0.08548795999999997
aF0.10749112000000006
aF0.10909839999999996
aF0.07838047999999996
aF0.08073175999999999
aF0.09836319999999994
aF0.09828480000000002
aF0.08915936000000006
aF0.09277108000000008
aF0.0933515599999999
aF0.09324948
aF0.09212268000000007
aF0.10496723999999992
aF0.10483691999999989
aF0.09975855999999994
aF0.09677572000000001
aF0.09951919999999988
aF0.09896080000000003
aF0.10837295999999985
aF0.11019835999999998
aF0.10741343999999999
ass(g1
(g5
S'433333\xe3?'
p410
tp411
Rp412
I6
tp413
(dp414
g32
(lp415
F0.05812344
aF0.057810399999999984
aF0.06430368000000002
aF0.06075164000000001
aF0.06537283999999999
aF0.049664160000000006
aF0.05307720000000006
aF0.05334779999999996
aF0.05051108000000006
aF0.05574992000000002
aF0.059284599999999923
aF0.04908031999999997
aF0.04754844000000004
aF0.07234688000000015
aF0.05614732
aF0.05045403999999998
aF0.05379180000000003
aF0.06439691999999995
aF0.07462952000000002
aF0.06333660000000003
aF0.06806111999999995
aF0.054165160000000025
aF0.059514160000000024
aF0.06695267999999993
aF0.05655335999999995
aF0.07684972
aF0.058667199999999996
aF0.05919164000000002
aF0.06188223999999997
aF0.05186304000000001
aF0.050131480000000034
aF0.05612112000000002
aF0.06804652
aF0.06758927999999999
aF0.05745360000000001
aF0.07140387999999999
aF0.054251080000000035
aF0.06939067999999997
aF0.058882240000000065
aF0.05812228000000001
aF0.06571603999999999
aF0.06580936
aF0.04198219999999999
aF0.06462564000000003
aF0.039565840000000005
aF0.06073103999999997
aF0.06240136000000001
aF0.055751839999999976
aF0.05394244
aF0.0454792
ass(g23
I32
tp416
(dp417
g13
(lp418
F0.008567200000000002
aF0.00733264
aF0.006501999999999999
aF0.007837280000000002
aF0.007823280000000002
aF0.005823480000000003
aF0.005774880000000001
aF0.0096418
aF0.00555408
aF0.007268000000000003
aF0.006930479999999999
aF0.007395720000000001
aF0.007361440000000002
aF0.006401840000000001
aF0.0102308
aF0.006313399999999999
aF0.006811880000000002
aF0.007557479999999998
aF0.009409360000000002
aF0.006310880000000001
aF0.00577392
aF0.005512160000000001
aF0.007274880000000002
aF0.005867400000000002
aF0.005552519999999999
aF0.0100678
aF0.006255959999999997
aF0.008180320000000001
aF0.0055613999999999985
aF0.0073187999999999994
aF0.006021520000000001
aF0.006933519999999998
aF0.007216360000000001
aF0.009063799999999999
aF0.006677480000000001
aF0.00570416
aF0.006295480000000002
aF0.005659719999999998
aF0.00526928
aF0.0062992000000000005
aF0.0067073600000000025
aF0.00901904
aF0.006709439999999999
aF0.00719036
aF0.00632888
aF0.006017839999999999
aF0.00469016
aF0.007668079999999999
aF0.00637764
aF0.0069149200000000015
ass(g199
I16
tp419
(dp420
g13
(lp421
F0.00343964
aF0.003542920000000001
aF0.003124240000000001
aF0.0037381199999999993
aF0.004157920000000001
aF0.0035705599999999995
aF0.00250608
aF0.0017803600000000004
aF0.0024146
aF0.0033683199999999997
aF0.0034775999999999995
aF0.004479519999999999
aF0.00330628
aF0.0030902399999999997
aF0.0027701200000000005
aF0.004472640000000001
aF0.0022647200000000004
aF0.0031946
aF0.0034899600000000003
aF0.0022222400000000003
aF0.00500532
aF0.0027670800000000003
aF0.00267832
aF0.0033952799999999997
aF0.0023040400000000007
aF0.0041879199999999995
aF0.0029868
aF0.003907320000000001
aF0.00427716
aF0.002863880000000001
aF0.0033621600000000008
aF0.0020178800000000005
aF0.0026158
aF0.00401308
aF0.002894760000000001
aF0.0027018400000000005
aF0.0022828
aF0.0020973999999999997
aF0.0027512
aF0.00332816
aF0.0028411600000000006
aF0.0050462
aF0.0036858000000000004
aF0.00253992
aF0.0030258000000000004
aF0.0024702
aF0.0024980400000000004
aF0.0019250000000000003
aF0.0029939200000000006
aF0.0026322800000000003
ass(g184
I16
tp422
(dp423
g13
(lp424
F0.007868439999999999
aF0.00732136
aF0.008271960000000002
aF0.009082400000000001
aF0.009052319999999996
aF0.01013592
aF0.010524199999999996
aF0.008840719999999998
aF0.009315080000000003
aF0.0083094
aF0.0091562
aF0.00814304
aF0.010062680000000004
aF0.009591759999999996
aF0.00909308
aF0.007445
aF0.007400200000000001
aF0.00816232
aF0.008178960000000002
aF0.00807496
aF0.008163879999999998
aF0.011297040000000001
aF0.012115680000000002
aF0.010879400000000001
aF0.00799088
aF0.008702000000000005
aF0.009884360000000002
aF0.007988600000000004
aF0.009919079999999997
aF0.01001208
aF0.007759119999999998
aF0.00893316
aF0.008505440000000003
aF0.00818896
aF0.011865879999999997
aF0.010066840000000002
aF0.007056400000000002
aF0.009041319999999997
aF0.010326680000000001
aF0.009048040000000004
aF0.009926079999999999
aF0.010419800000000003
aF0.007816680000000001
aF0.01112648
aF0.01160752
aF0.01013176
aF0.00696304
aF0.0066341600000000035
aF0.006302280000000002
aF0.009742279999999999
ass(g160
I8
tp425
(dp426
g13
(lp427
F0.11181768000000007
aF0.1406397600000001
aF0.11210736000000009
aF0.13155420000000004
aF0.11587688000000006
aF0.11164420000000003
aF0.12066107999999999
aF0.15067123999999985
aF0.12449428000000011
aF0.1121684800000001
aF0.15625643999999994
aF0.12731431999999976
aF0.1129658000000001
aF0.1371298
aF0.12311644000000016
aF0.12322779999999994
aF0.12358727999999995
aF0.12342659999999991
aF0.11555220000000004
aF0.11709971999999998
aF0.10547203999999992
aF0.11046592000000025
aF0.13067248000000006
aF0.10019251999999998
aF0.14361912000000002
aF0.11419840000000017
aF0.10947128000000005
aF0.1166889200000001
aF0.12128688000000012
aF0.1083260399999999
aF0.1235220000000001
aF0.12551915999999994
aF0.16556040000000014
aF0.14346592000000014
aF0.11728492
aF0.11703644000000016
aF0.12513896000000013
aF0.11746843999999994
aF0.13809204000000028
aF0.09495416000000004
aF0.10826079999999998
aF0.11183252000000005
aF0.11731603999999995
aF0.11411048000000003
aF0.1176745200000002
aF0.1215684
aF0.12558264000000016
aF0.12695440000000002
aF0.10913811999999999
aF0.12166831999999998
ass(g1
(g5
S'\x9a\x99\x99\x99\x99\x99\xe1?'
p428
tp429
Rp430
I6
tp431
(dp432
g32
(lp433
F0.03306752
aF0.02996788000000001
aF0.0334888
aF0.028706839999999983
aF0.028533040000000016
aF0.03389115999999998
aF0.027818440000000017
aF0.04064247999999999
aF0.037749880000000034
aF0.031103079999999988
aF0.03154272000000002
aF0.024601680000000004
aF0.03805151999999998
aF0.03441000000000003
aF0.02993316000000002
aF0.03207991999999998
aF0.04217491999999999
aF0.028540920000000008
aF0.03248264
aF0.038160919999999966
aF0.03598492000000002
aF0.02966836
aF0.03356580000000002
aF0.04082744000000001
aF0.031509840000000004
aF0.028034119999999992
aF0.03310588
aF0.03902540000000004
aF0.024469839999999996
aF0.03702648000000002
aF0.029857959999999996
aF0.027983120000000007
aF0.03900644
aF0.022753239999999997
aF0.033224279999999995
aF0.036044720000000016
aF0.03949479999999999
aF0.03202048
aF0.03625676000000003
aF0.03928784000000001
aF0.029160319999999997
aF0.03582783999999999
aF0.03947855999999998
aF0.03145372000000001
aF0.03680652000000003
aF0.04896599999999994
aF0.027974439999999986
aF0.040856599999999986
aF0.0340732
aF0.03353051999999998
ass(g1
(g5
S'433333\xe3?'
p434
tp435
Rp436
I4
tp437
(dp438
g51
(lp439
F0.0140354
aF0.00865524
aF0.012429800000000001
aF0.0139472
aF0.009169360000000001
aF0.010332079999999997
aF0.013160200000000006
aF0.014328159999999994
aF0.006702880000000003
aF0.008810280000000004
aF0.009639959999999998
aF0.0065874
aF0.011429319999999996
aF0.008949799999999997
aF0.01000964
aF0.009852040000000005
aF0.00862564
aF0.009925199999999999
aF0.013285760000000002
aF0.00587404
aF0.011286479999999996
aF0.010491360000000003
aF0.017461119999999993
aF0.0167654
aF0.0130604
aF0.01093156
aF0.014209479999999997
aF0.0077704
aF0.0136344
aF0.006774720000000001
aF0.008987480000000004
aF0.00887992
aF0.009763720000000002
aF0.009397760000000002
aF0.010392440000000006
aF0.008224960000000002
aF0.012787080000000003
aF0.011464920000000005
aF0.00691968
aF0.009034440000000003
aF0.008479480000000003
aF0.010098720000000004
aF0.011813360000000007
aF0.009956679999999999
aF0.011194200000000001
aF0.00921888
aF0.01122676
aF0.014948839999999998
aF0.008485280000000003
aF0.011259520000000002
ass(g1
(g5
S'gfffff\xd6?'
p440
tp441
Rp442
I4
tp443
(dp444
g51
(lp445
F0.0007247200000000002
aF0.00158712
aF0.0011113999999999998
aF0.00165112
aF0.0017430400000000004
aF0.0012239199999999999
aF0.00153272
aF0.0011431199999999999
aF0.00152416
aF0.0015956800000000004
aF0.0030332800000000006
aF0.00128508
aF0.00134152
aF0.0020406
aF0.0018944
aF0.0031623999999999997
aF0.00150136
aF0.0016890800000000001
aF0.0019916
aF0.00121564
aF0.00240632
aF0.00172272
aF0.0019683200000000004
aF0.0024930800000000004
aF0.00143792
aF0.00255324
aF0.0016279600000000001
aF0.00133624
aF0.00206156
aF0.00101796
aF0.0016495600000000002
aF0.0016651600000000002
aF0.0018710399999999998
aF0.0016068
aF0.0018522400000000002
aF0.0015269600000000002
aF0.0012477200000000001
aF0.0014005600000000001
aF0.00153684
aF0.0032544400000000004
aF0.00118152
aF0.0015023600000000001
aF0.00147548
aF0.0014683200000000002
aF0.0024523200000000005
aF0.00117952
aF0.0020128
aF0.00133812
aF0.0019440400000000002
aF0.0026204000000000006
ass(g97
I8
tp446
(dp447
g13
(lp448
F0.00094236
aF0.0016046
aF0.0017198
aF0.00047104000000000004
aF0.00029104
aF0.00123064
aF0.00122064
aF0.0010072000000000002
aF0.0005128400000000001
aF0.0008241599999999999
aF0.00119224
aF0.00079152
aF0.0016478399999999998
aF0.0008897999999999999
aF0.0008079599999999999
aF0.0011167199999999999
aF0.0009425600000000001
aF0.001376
aF0.00055732
aF0.00076744
aF0.00069212
aF0.00101156
aF0.00109164
aF0.00138456
aF0.0007932
aF0.00113176
aF0.00049792
aF0.00076528
aF0.001178
aF0.00156376
aF0.00093508
aF0.00070176
aF0.0006338400000000001
aF0.0012167200000000001
aF0.0017238000000000004
aF0.0009575600000000001
aF0.0008487200000000001
aF0.0006998400000000001
aF0.00116328
aF0.0007332000000000001
aF0.00073964
aF0.0007740400000000001
aF0.0008427199999999999
aF0.00122404
aF0.0014551200000000003
aF0.0011455600000000001
aF0.0017502799999999999
aF0.0007932
aF0.00072528
aF0.0006042
ass(g268
I24
tp449
(dp450
g13
(lp451
F0.03570420000000001
aF0.03942671999999999
aF0.03319099999999999
aF0.03576236000000002
aF0.03605275999999998
aF0.04139968000000002
aF0.035647759999999994
aF0.03640308000000002
aF0.03815304000000002
aF0.04143724000000001
aF0.03642079999999999
aF0.039774119999999975
aF0.034797400000000006
aF0.02894908000000002
aF0.031382
aF0.035037359999999976
aF0.03426768
aF0.035658440000000007
aF0.03699064
aF0.032268399999999996
aF0.029998319999999995
aF0.0297964
aF0.03903172000000002
aF0.04441964000000001
aF0.040117480000000004
aF0.03253612000000002
aF0.04086348000000002
aF0.029632760000000005
aF0.03036687999999998
aF0.03500344
aF0.03251995999999998
aF0.03648428000000001
aF0.0371192
aF0.028591760000000025
aF0.034467920000000006
aF0.03287791999999999
aF0.03877259999999999
aF0.03115148000000001
aF0.049101080000000005
aF0.03405864000000001
aF0.028563399999999992
aF0.03672903999999999
aF0.03814835999999997
aF0.03381348000000002
aF0.030754279999999974
aF0.03607031999999998
aF0.03540872000000002
aF0.038270959999999986
aF0.03035292000000002
aF0.0320756
ass(g97
I24
tp452
(dp453
g13
(lp454
F0.0006711200000000001
aF0.00114648
aF0.00086224
aF0.0010824
aF0.00120124
aF0.0008747200000000001
aF0.00158972
aF0.00120164
aF0.00106192
aF0.00154152
aF0.0005209200000000001
aF0.00066392
aF0.0016227600000000002
aF0.00130116
aF0.0006674000000000001
aF0.0017397599999999997
aF0.0005754400000000001
aF0.00127604
aF0.00065704
aF0.00111056
aF0.00099168
aF0.0013399199999999999
aF0.0018625600000000003
aF0.00038388000000000007
aF0.00132776
aF0.0013598
aF0.0015476800000000003
aF0.002411
aF0.00139204
aF0.0004678
aF0.0018122800000000003
aF0.00094108
aF0.00056508
aF0.0012633600000000003
aF0.00085028
aF0.00097832
aF0.00066096
aF0.0018770000000000002
aF0.00100384
aF0.0012525199999999998
aF0.00097036
aF0.0007010800000000002
aF0.00108736
aF0.0018278
aF0.0016656000000000002
aF0.00155016
aF0.0007008800000000001
aF0.00132876
aF0.0018551600000000002
aF0.00122604
ass(g36
I8
tp455
(dp456
g13
(lp457
F0.013054719999999999
aF0.013143319999999998
aF0.01514372
aF0.01639348
aF0.016121119999999996
aF0.01453516
aF0.01420836
aF0.013051160000000006
aF0.010468679999999998
aF0.012741560000000002
aF0.017747519999999992
aF0.01666716
aF0.015236200000000004
aF0.013645919999999995
aF0.011916960000000006
aF0.018491839999999996
aF0.015869319999999996
aF0.012625960000000004
aF0.01660212
aF0.010864919999999997
aF0.012895359999999998
aF0.011972559999999998
aF0.017472280000000003
aF0.016578240000000008
aF0.009023920000000001
aF0.01818888
aF0.01415988000000001
aF0.013319599999999992
aF0.016241319999999997
aF0.008608239999999998
aF0.012898040000000001
aF0.00907696
aF0.011626040000000004
aF0.011539080000000004
aF0.014874520000000002
aF0.014236959999999998
aF0.012459479999999997
aF0.015369399999999997
aF0.01665268
aF0.011013479999999999
aF0.01234308
aF0.015829879999999998
aF0.017836839999999996
aF0.013073239999999998
aF0.014336439999999999
aF0.013692439999999995
aF0.01634356
aF0.017680439999999995
aF0.014677920000000002
aF0.014513640000000006
ass(g76
I32
tp458
(dp459
g13
(lp460
F0.0036706399999999998
aF0.00432496
aF0.00458044
aF0.005348759999999999
aF0.004934999999999999
aF0.005746159999999998
aF0.004272999999999999
aF0.00807196
aF0.00458216
aF0.005137959999999999
aF0.00435652
aF0.0051953599999999996
aF0.0029514000000000003
aF0.004706280000000001
aF0.00525268
aF0.00464132
aF0.00578684
aF0.00356916
aF0.00326576
aF0.004790439999999999
aF0.006398439999999999
aF0.0046760000000000005
aF0.007739479999999999
aF0.005454959999999999
aF0.004598560000000001
aF0.004741239999999999
aF0.006189680000000001
aF0.00398508
aF0.0038346400000000007
aF0.004601
aF0.00382948
aF0.00471592
aF0.0051432
aF0.005192959999999999
aF0.005784840000000001
aF0.005178600000000001
aF0.004634320000000001
aF0.0037253200000000003
aF0.005772880000000001
aF0.004220959999999999
aF0.0032086799999999998
aF0.00442496
aF0.00499896
aF0.0037745600000000006
aF0.0055187199999999995
aF0.00556396
aF0.005395840000000002
aF0.0037690000000000006
aF0.00550648
aF0.0055594
ass(g184
I32
tp461
(dp462
g13
(lp463
F0.010222120000000001
aF0.009191200000000002
aF0.00880216
aF0.00851356
aF0.009254239999999999
aF0.010243080000000002
aF0.007964800000000001
aF0.010162119999999998
aF0.012929600000000001
aF0.01107204
aF0.01161076
aF0.00906696
aF0.01003312
aF0.01009316
aF0.00834136
aF0.008649399999999998
aF0.012335080000000003
aF0.010740999999999999
aF0.012949400000000003
aF0.00968756
aF0.009824240000000001
aF0.012943240000000002
aF0.01187772
aF0.009841959999999999
aF0.0090564
aF0.008654400000000003
aF0.007582640000000001
aF0.007734720000000002
aF0.007587840000000002
aF0.008039359999999997
aF0.011993600000000002
aF0.010699800000000004
aF0.0074869199999999985
aF0.009821200000000002
aF0.008263240000000002
aF0.008655000000000001
aF0.0081852
aF0.006364279999999999
aF0.0085204
aF0.007444799999999999
aF0.007011679999999999
aF0.01056556
aF0.012617360000000003
aF0.008420000000000004
aF0.006841800000000002
aF0.011212439999999997
aF0.008129960000000002
aF0.009590000000000003
aF0.009032879999999997
aF0.010913040000000004
ass(g199
I32
tp464
(dp465
g13
(lp466
F0.00203912
aF0.00286948
aF0.0051508
aF0.00266492
aF0.0028750400000000006
aF0.0044068
aF0.00326064
aF0.0032849999999999993
aF0.002211
aF0.0031200399999999997
aF0.00343316
aF0.00306176
aF0.0031008800000000003
aF0.0034276400000000005
aF0.00392816
aF0.00290228
aF0.00258432
aF0.0032502400000000006
aF0.0031280799999999997
aF0.0032898800000000002
aF0.004299279999999999
aF0.0032128
aF0.0052557199999999984
aF0.003444680000000001
aF0.0025483199999999998
aF0.003806200000000001
aF0.0029708000000000004
aF0.0036814400000000002
aF0.0025770800000000003
aF0.00440184
aF0.0026747200000000002
aF0.00215552
aF0.00253376
aF0.003582320000000001
aF0.00440092
aF0.0031814400000000002
aF0.003986920000000001
aF0.0025560400000000003
aF0.00394612
aF0.0029673600000000005
aF0.0038371200000000007
aF0.00335104
aF0.0032680400000000003
aF0.0031782
aF0.00366348
aF0.00412036
aF0.004090959999999999
aF0.002394199999999999
aF0.0037490000000000015
aF0.0039652
ass(g1
(g5
S'\x9a\x99\x99\x99\x99\x99\xa9?'
p467
tp468
Rp469
I4
tp470
(dp471
g51
(lp472
F0.0009579600000000001
aF0.00046348000000000006
aF0.000802
aF0.00072416
aF0.0005424
aF0.0009919999999999998
aF0.00132304
aF0.0008548399999999999
aF0.00017936000000000002
aF0.00105724
aF0.00105784
aF0.0011216000000000002
aF0.0006933200000000001
aF0.00094256
aF0.0008405600000000001
aF0.00039216
aF0.00136192
aF0.0016674000000000003
aF0.0014314
aF0.00159372
aF0.00043196
aF0.0010107199999999999
aF0.00061264
aF0.00124308
aF0.00104276
aF0.00113572
aF0.00027480000000000007
aF0.0015877600000000001
aF0.00138352
aF0.0010266800000000003
aF0.0011464399999999999
aF0.0008317600000000002
aF0.00070336
aF0.00072032
aF0.0010784
aF0.0014838
aF0.00111176
aF0.00042612
aF0.0008590000000000002
aF0.00052592
aF0.00059228
aF0.00124464
aF0.0010515600000000002
aF0.00081964
aF0.0001234
aF0.0007590800000000001
aF0.0006336
aF0.0008844800000000001
aF0.0011568799999999999
aF0.00098188
ass(g109
I16
tp473
(dp474
g13
(lp475
F0.0016222800000000002
aF0.0016522400000000001
aF0.0021494799999999996
aF0.0009811200000000003
aF0.00146376
aF0.00126352
aF0.0015422800000000003
aF0.00180332
aF0.0009368400000000001
aF0.0017001600000000005
aF0.0010010800000000001
aF0.00203472
aF0.0012858400000000001
aF0.0012563200000000002
aF0.0010677199999999999
aF0.00124248
aF0.0012796400000000003
aF0.0012633599999999998
aF0.0009520399999999999
aF0.0010664000000000001
aF0.0006139200000000001
aF0.0012322
aF0.0012404
aF0.00072668
aF0.0010788800000000002
aF0.00139716
aF0.0012507199999999999
aF0.0009168000000000001
aF0.0010358400000000001
aF0.00143396
aF0.00104648
aF0.000846
aF0.00056744
aF0.0023512800000000003
aF0.00115276
aF0.0015505200000000001
aF0.00145508
aF0.0018529999999999998
aF0.00144056
aF0.0007472800000000001
aF0.0011962000000000001
aF0.0018530400000000002
aF0.00066664
aF0.0012918399999999998
aF0.00202532
aF0.000775
aF0.0006719600000000001
aF0.00181256
aF0.00134068
aF0.00127952
ass(g10
I16
tp476
(dp477
g13
(lp478
F0.020992999999999998
aF0.02537848000000001
aF0.018691480000000003
aF0.030406319999999994
aF0.021718319999999985
aF0.025650000000000017
aF0.026373279999999995
aF0.033260240000000024
aF0.025753759999999994
aF0.02386164
aF0.024382280000000013
aF0.019957239999999994
aF0.020204639999999996
aF0.03154584
aF0.028078560000000034
aF0.019435159999999996
aF0.01843700000000001
aF0.023983720000000014
aF0.020460880000000004
aF0.022524280000000008
aF0.021095000000000006
aF0.02055763999999999
aF0.023162280000000007
aF0.026724000000000015
aF0.018989920000000007
aF0.022382959999999997
aF0.02376940000000002
aF0.02319155999999999
aF0.025339520000000015
aF0.0226674
aF0.021017280000000017
aF0.025987439999999983
aF0.018116480000000004
aF0.029214240000000013
aF0.019241799999999993
aF0.024359079999999984
aF0.024376400000000013
aF0.02328776
aF0.02299772
aF0.019441240000000002
aF0.01736944
aF0.022233839999999998
aF0.02092792000000001
aF0.024501799999999994
aF0.020349080000000002
aF0.024699240000000018
aF0.023744240000000007
aF0.02602540000000002
aF0.027507080000000017
aF0.020916040000000004
ass(g268
I16
tp479
(dp480
g13
(lp481
F0.045304720000000014
aF0.03870755999999998
aF0.03171892
aF0.031033360000000013
aF0.030343039999999995
aF0.042105279999999995
aF0.03241487999999999
aF0.03663752000000003
aF0.035293959999999965
aF0.041362320000000015
aF0.035497759999999996
aF0.045773999999999995
aF0.03175464000000001
aF0.034737119999999996
aF0.03526232
aF0.03906256000000003
aF0.032864
aF0.030513080000000005
aF0.04079824000000001
aF0.04027892000000003
aF0.03652435999999999
aF0.035743479999999994
aF0.036960999999999994
aF0.03410168
aF0.04195912
aF0.03335840000000001
aF0.03322000000000003
aF0.040535959999999996
aF0.036795039999999994
aF0.030923560000000034
aF0.040885080000000004
aF0.03392319999999999
aF0.035288960000000015
aF0.037471279999999996
aF0.03898968000000007
aF0.03679752
aF0.034236119999999995
aF0.035360079999999995
aF0.0395666
aF0.03267155999999998
aF0.03888711999999999
aF0.032018920000000006
aF0.03342547999999999
aF0.03382523999999999
aF0.034339440000000006
aF0.033743520000000006
aF0.03491192000000004
aF0.0354384
aF0.03370580000000001
aF0.042129360000000046
ass(g1
(g5
S'gfffff\xe6?'
p482
tp483
Rp484
I4
tp485
(dp486
g51
(lp487
F0.03837539999999998
aF0.02828135999999999
aF0.02511912000000002
aF0.029026719999999992
aF0.028594320000000013
aF0.02277712
aF0.02643871999999999
aF0.033415560000000025
aF0.02161412
aF0.025933319999999996
aF0.026208839999999997
aF0.030079319999999996
aF0.02561516
aF0.03610140000000001
aF0.032494520000000006
aF0.027798399999999997
aF0.02874099999999998
aF0.02685184
aF0.02954544000000001
aF0.02889396000000002
aF0.03452963999999999
aF0.03528092000000005
aF0.025891480000000005
aF0.03422508
aF0.02451300000000001
aF0.030184000000000006
aF0.03315440000000002
aF0.03550080000000001
aF0.030217839999999982
aF0.03884204000000003
aF0.024045000000000004
aF0.03370796000000001
aF0.028864960000000002
aF0.02635472000000002
aF0.028760960000000012
aF0.03134896000000001
aF0.020544800000000012
aF0.027251999999999988
aF0.02467784
aF0.03441352000000001
aF0.03141276000000001
aF0.02834975999999999
aF0.031311120000000005
aF0.0408376
aF0.03017148
aF0.03924224000000002
aF0.022542680000000002
aF0.03590692000000001
aF0.027197400000000007
aF0.02839696000000002
ass(g130
I32
tp488
(dp489
g13
(lp490
F0.3168324800000004
aF0.3382885600000008
aF0.3340892400000004
aF0.33740287999999957
aF0.36736828000000143
aF0.33094940000000034
aF0.32211952000000105
aF0.3320479200000008
aF0.35897216000000004
aF0.3174371600000003
aF0.3322430400000008
aF0.3730918400000003
aF0.3500956800000009
aF0.3557029200000002
aF0.3196912799999999
aF0.3411436000000001
aF0.3407134800000001
aF0.3802425600000008
aF0.3577631999999999
aF0.37356059999999924
aF0.371477200000001
aF0.34428412000000047
aF0.3271735200000005
aF0.31946608000000043
aF0.3203170400000004
aF0.33590496000000064
aF0.33583312
aF0.3455139199999994
aF0.35037216000000104
aF0.3302794800000002
aF0.3567576000000006
aF0.3240888800000003
aF0.4026501200000005
aF0.37250404000000087
aF0.33676016000000036
aF0.322361920000001
aF0.3165569600000002
aF0.3563752399999999
aF0.3258074000000003
aF0.34497304000000056
aF0.3443325600000011
aF0.3663946800000002
aF0.3189611200000002
aF0.33627391999999984
aF0.33245268000000094
aF0.3348019199999998
aF0.31229055999999883
aF0.3662300000000007
aF0.35792096000000023
aF0.33917684000000037
ass(g136
I24
tp491
(dp492
g13
(lp493
F0.11213964000000007
aF0.11585335999999999
aF0.11257112000000005
aF0.13550196
aF0.14091931999999982
aF0.11184691999999999
aF0.13906408000000023
aF0.12378156000000001
aF0.12481792000000004
aF0.13123536
aF0.1156064799999999
aF0.12741344000000007
aF0.1364316400000002
aF0.10684568000000008
aF0.11226312000000001
aF0.11832280000000006
aF0.10746611999999992
aF0.12032668000000014
aF0.10812480000000001
aF0.11244063999999993
aF0.12829475999999998
aF0.1241464
aF0.12097955999999994
aF0.1330530799999998
aF0.11196980000000017
aF0.11518500000000016
aF0.10608348000000006
aF0.12999400000000008
aF0.12737616
aF0.11605439999999999
aF0.12275672000000008
aF0.12376776000000005
aF0.11653428000000014
aF0.11418236000000002
aF0.15108923999999993
aF0.14247023999999991
aF0.13179835999999992
aF0.13168679999999983
aF0.11476371999999994
aF0.12356812000000014
aF0.11453883999999998
aF0.13258195999999992
aF0.11373711999999997
aF0.12061035999999997
aF0.12141188000000006
aF0.10977972000000005
aF0.13934192000000017
aF0.1230986000000001
aF0.12672908000000008
aF0.09852339999999986
ass(g1
(g5
S'433333\xd3?'
p494
tp495
Rp496
I6
tp497
(dp498
g32
(lp499
F0.0034147199999999996
aF0.00216556
aF0.0047968
aF0.00335672
aF0.0022044400000000002
aF0.003032279999999999
aF0.0026358800000000006
aF0.00473632
aF0.00430424
aF0.00208632
aF0.0038542000000000008
aF0.0035508399999999987
aF0.004213680000000001
aF0.0044635199999999995
aF0.00400204
aF0.00309944
aF0.00341672
aF0.00280944
aF0.00398692
aF0.0030555200000000004
aF0.002965400000000001
aF0.00313092
aF0.0033965600000000007
aF0.004468600000000001
aF0.0035084000000000005
aF0.00428132
aF0.0026536000000000007
aF0.0036058
aF0.00323984
aF0.0031831999999999997
aF0.00390924
aF0.0020287599999999997
aF0.00250932
aF0.00364552
aF0.0017666000000000001
aF0.0028826400000000005
aF0.002785
aF0.00450552
aF0.0030325999999999994
aF0.00283776
aF0.0025610800000000007
aF0.00281596
aF0.003916960000000001
aF0.00271536
aF0.00315232
aF0.003605800000000001
aF0.0029728800000000002
aF0.00402888
aF0.0032132000000000007
aF0.00452428
ass(g130
I16
tp500
(dp501
g13
(lp502
F0.5541187599999994
aF0.531207920000001
aF0.5213290400000009
aF0.5589504399999997
aF0.48752235999999993
aF0.5338068400000018
aF0.5448202000000014
aF0.5232875599999993
aF0.5311167199999998
aF0.5309999200000003
aF0.5198425600000014
aF0.4960592400000011
aF0.55053252
aF0.5906278800000023
aF0.5215875199999995
aF0.5577656800000026
aF0.49702871999999926
aF0.5654442399999995
aF0.5316169600000001
aF0.5853737199999994
aF0.5200611600000001
aF0.5726143999999975
aF0.5757015199999985
aF0.5555360800000031
aF0.5109285600000011
aF0.5562346800000003
aF0.5500832799999984
aF0.518111360000001
aF0.5225688000000013
aF0.5396155200000006
aF0.5393528800000003
aF0.5244949199999998
aF0.5441703200000008
aF0.5341943600000018
aF0.5319319599999995
aF0.559430119999999
aF0.5697145199999998
aF0.5072042000000009
aF0.527443080000003
aF0.51853108
aF0.560665560000001
aF0.578451160000003
aF0.5561720799999994
aF0.564469040000002
aF0.5356323199999996
aF0.50647888
aF0.5046370400000008
aF0.5428214000000028
aF0.5155084000000008
aF0.5214838399999999
ass(g172
I24
tp503
(dp504
g13
(lp505
F0.2814443999999999
aF0.26995292000000054
aF0.2658101200000006
aF0.24743048000000004
aF0.25172660000000074
aF0.2542319600000004
aF0.26153043999999986
aF0.2580391600000002
aF0.24259903999999954
aF0.2508359199999998
aF0.23956308000000026
aF0.2699619199999999
aF0.29040476000000065
aF0.22643248000000019
aF0.2441101600000004
aF0.2386471600000002
aF0.2418989600000002
aF0.26353451999999983
aF0.24660860000000032
aF0.2805938400000003
aF0.26281903999999984
aF0.26600680000000027
aF0.2525895600000001
aF0.26984240000000026
aF0.26355248000000014
aF0.2731283999999996
aF0.24329991999999998
aF0.27842724000000046
aF0.2427443599999998
aF0.25737556
aF0.2808349200000002
aF0.29130343999999947
aF0.2361525199999995
aF0.2787664400000001
aF0.2681958800000007
aF0.24510936000000003
aF0.26369208
aF0.26512876000000063
aF0.24720323999999946
aF0.25026272000000044
aF0.2362591199999999
aF0.2864008800000006
aF0.2516229599999998
aF0.23810231999999995
aF0.27668648
aF0.2597557600000009
aF0.22228244000000028
aF0.22262548000000046
aF0.26905888
aF0.2521723600000006
ass(g217
I24
tp506
(dp507
g13
(lp508
F0.002091
aF0.0018729600000000001
aF0.0025797199999999998
aF0.00235924
aF0.0018912400000000004
aF0.0019284400000000004
aF0.00185448
aF0.00308208
aF0.0023398399999999997
aF0.00164588
aF0.0024168
aF0.00291504
aF0.00251992
aF0.00269424
aF0.0017006800000000002
aF0.0022519999999999997
aF0.00235736
aF0.0015860800000000001
aF0.00337196
aF0.0025192
aF0.00142308
aF0.00241672
aF0.0015626400000000003
aF0.0023396
aF0.00275812
aF0.00270468
aF0.0023643600000000002
aF0.003171760000000001
aF0.0030531600000000005
aF0.00245796
aF0.0020719199999999997
aF0.0020959200000000002
aF0.0034196800000000005
aF0.00195616
aF0.0023292800000000004
aF0.0022959200000000003
aF0.0031672399999999996
aF0.0036601599999999987
aF0.0023388000000000003
aF0.00323388
aF0.00102468
aF0.0021879200000000003
aF0.00288512
aF0.00215528
aF0.00381016
aF0.0018402799999999997
aF0.0022656
aF0.0013928800000000002
aF0.00185492
aF0.0020450400000000006
ass(g36
I16
tp509
(dp510
g13
(lp511
F0.013678159999999998
aF0.014191679999999998
aF0.014969040000000001
aF0.013121880000000004
aF0.016416720000000006
aF0.018829240000000004
aF0.012896319999999998
aF0.016223480000000002
aF0.013187319999999994
aF0.015296160000000001
aF0.015294680000000005
aF0.009071920000000004
aF0.017760280000000003
aF0.017867880000000003
aF0.011830320000000004
aF0.013065640000000002
aF0.013629879999999999
aF0.013617200000000001
aF0.012741839999999996
aF0.015136479999999999
aF0.0173976
aF0.013499160000000001
aF0.013324760000000001
aF0.01540724
aF0.011441519999999997
aF0.011253479999999998
aF0.015601600000000002
aF0.010679879999999996
aF0.01229224
aF0.013304640000000001
aF0.015014879999999998
aF0.0115144
aF0.01441488000000001
aF0.013636680000000003
aF0.012864239999999997
aF0.013845479999999995
aF0.0179754
aF0.011274000000000006
aF0.014548880000000002
aF0.01842736
aF0.015953920000000007
aF0.013556800000000003
aF0.014824200000000001
aF0.015946800000000004
aF0.0144516
aF0.014721799999999995
aF0.0152934
aF0.016973239999999994
aF0.015193680000000003
aF0.01029344
ass(g1
(g5
S'\x9a\x99\x99\x99\x99\x99\xa9?'
p512
tp513
Rp514
I6
tp515
(dp516
g32
(lp517
F0.0012873200000000002
aF0.0011398000000000003
aF0.0010148000000000002
aF0.00119256
aF0.0012532
aF0.00138704
aF0.0008393600000000001
aF0.0009420399999999999
aF0.00132444
aF0.0008916
aF0.0005637600000000001
aF0.00063996
aF0.0014933200000000002
aF0.00056224
aF0.00083496
aF0.00070456
aF0.00086432
aF0.0014096800000000004
aF0.00137064
aF0.0008136399999999999
aF0.00042852000000000005
aF0.0017209199999999997
aF0.0010098800000000001
aF0.00089904
aF0.00150476
aF0.00111596
aF0.0004947199999999999
aF0.00098808
aF0.00035616
aF0.00057028
aF0.00128008
aF0.0007766400000000001
aF0.0013587200000000001
aF0.00056676
aF0.00087748
aF0.0014343600000000002
aF0.00097824
aF0.00191544
aF0.00055128
aF0.0010064800000000001
aF0.00086012
aF0.00153016
aF0.0013586800000000001
aF0.0005816
aF0.00129148
aF0.0006176800000000001
aF0.0006271200000000001
aF0.0010800000000000002
aF0.0003702
aF0.0007403199999999999
ass(g1
(g5
S'433333\xeb?'
p518
tp519
Rp520
I6
tp521
(dp522
g32
(lp523
F0.5579961600000006
aF0.5700145200000013
aF0.5555140400000044
aF0.5946002399999979
aF0.5663883599999977
aF0.5113582000000004
aF0.5524248399999995
aF0.48555703999999983
aF0.5360488800000007
aF0.5243400400000011
aF0.5141301200000001
aF0.5343495599999982
aF0.5324951599999992
aF0.5766472800000005
aF0.5273858000000021
aF0.5787289600000008
aF0.5442510799999986
aF0.5233823199999996
aF0.5768475600000013
aF0.5348791600000006
aF0.554320959999999
aF0.5388935599999983
aF0.5558312000000004
aF0.5501614000000001
aF0.5796810800000022
aF0.5572994400000004
aF0.5645713199999992
aF0.48480488
aF0.4880476399999994
aF0.5843256000000016
aF0.5820056000000018
aF0.5707868800000002
aF0.5306780399999989
aF0.5106774800000026
aF0.5590985999999989
aF0.5611351999999995
aF0.5589972399999993
aF0.5928776399999993
aF0.5281839999999992
aF0.48026968000000053
aF0.5591334799999985
aF0.5387509599999993
aF0.5647202400000002
aF0.5778321199999981
aF0.5231895999999991
aF0.5399095999999988
aF0.5658076400000001
aF0.5351670399999987
aF0.5713040799999981
aF0.5920763199999999
ass.