(dp0
(cnumpy.core.multiarray
scalar
p1
(cnumpy
dtype
p2
(S'f8'
p3
I0
I1
tp4
Rp5
(I3
S'<'
p6
NNNI-1
I-1
I0
tp7
bS'\x00\x00\x00\x00\x00\x00\xe8?'
p8
tp9
Rp10
I24
tp11
(dp12
S'p_real_lst'
p13
(lp14
F0.5071317999999991
aF0.5440056799999983
aF0.5033100399999992
aF0.5108171600000019
aF0.532461239999999
aF0.5445534800000026
aF0.5369104000000016
aF0.5445706399999979
aF0.54272408
aF0.5665679200000018
aF0.5110614399999981
aF0.5542368399999991
aF0.5108073600000038
aF0.5295241200000016
aF0.5331551200000032
aF0.5397591199999999
aF0.5492989200000009
aF0.5512681999999974
aF0.5210555200000002
aF0.5181237600000043
aF0.5359099600000011
aF0.5622338800000017
aF0.49323776000000125
aF0.5168308000000023
aF0.5081034800000022
aF0.5198238800000016
aF0.5319616000000025
aF0.5134109200000013
aF0.5270054399999993
aF0.5262293999999993
aF0.5272130000000038
aF0.5381020000000006
aF0.5479166399999961
aF0.4829819600000015
aF0.5248298399999997
aF0.5226835600000005
aF0.5078083200000023
aF0.5314358800000024
aF0.5280630399999985
aF0.5227400799999998
aF0.5166198799999993
aF0.5547761599999979
aF0.492437800000001
aF0.5272157200000008
aF0.5048502000000002
aF0.5419373599999999
aF0.5305894800000002
aF0.5283626799999971
aF0.5291818399999993
aF0.510974880000004
ass(g1
(g5
S'433333\xc3?'
p15
tp16
Rp17
I16
tp18
(dp19
g13
(lp20
F0.0013736400000000002
aF0.0015988
aF0.00180368
aF0.00098616
aF0.00088896
aF0.00238896
aF0.0020888799999999996
aF0.0014179600000000002
aF0.00101352
aF0.00205728
aF0.0010943200000000002
aF0.0016792000000000003
aF0.0016567200000000002
aF0.0022472
aF0.00136056
aF0.00235
aF0.00160616
aF0.00170468
aF0.0012285999999999998
aF0.0018197199999999997
aF0.00073424
aF0.0016232400000000002
aF0.00136008
aF0.0012294
aF0.00181568
aF0.00094404
aF0.00114924
aF0.00257592
aF0.0007542000000000001
aF0.0018668399999999998
aF0.0017420400000000003
aF0.00228608
aF0.00164652
aF0.00107924
aF0.0006714000000000001
aF0.0011360000000000003
aF0.0013637999999999999
aF0.0026884800000000005
aF0.0017999200000000002
aF0.00149196
aF0.0017418000000000004
aF0.00214212
aF0.0013239200000000001
aF0.00165736
aF0.002706
aF0.0022057200000000004
aF0.0016051200000000002
aF0.0022403600000000007
aF0.0012319599999999998
aF0.0014074000000000005
ass(g1
(g5
S'gfffff\xe6?'
p21
tp22
Rp23
I16
tp24
(dp25
g13
(lp26
F0.23286167999999982
aF0.22392611999999978
aF0.2628601200000008
aF0.22328468000000015
aF0.2211730000000004
aF0.23619640000000006
aF0.24918439999999994
aF0.21343172000000035
aF0.24491060000000048
aF0.2156580400000002
aF0.22691532000000003
aF0.23538116000000076
aF0.2534907600000001
aF0.2399102000000005
aF0.24640152000000015
aF0.2461753200000005
aF0.2183199599999999
aF0.21495616000000003
aF0.2293905600000001
aF0.21478751999999957
aF0.22044004000000003
aF0.21772564
aF0.24488460000000029
aF0.2308081599999999
aF0.22696511999999952
aF0.24874244
aF0.24463943999999954
aF0.22897003999999996
aF0.22361127999999997
aF0.21039336000000006
aF0.22824547999999972
aF0.20751696000000025
aF0.22628384000000018
aF0.22076759999999965
aF0.23482763999999975
aF0.21184176000000032
aF0.2219583600000001
aF0.22644108000000004
aF0.2003036399999998
aF0.21269679999999985
aF0.22840348000000057
aF0.20936935999999953
aF0.21955627999999983
aF0.21981464
aF0.24166468000000021
aF0.2294466800000001
aF0.22574931999999992
aF0.2256806800000003
aF0.24686407999999985
aF0.24185944000000037
ass(g1
(g5
S'\x9a\x99\x99\x99\x99\x99\xe1?'
p27
tp28
Rp29
I6
tp30
(dp31
S'p_real_lst'
p32
(lp33
F0.00861328
aF0.008698960000000002
aF0.010591880000000005
aF0.0093326
aF0.01008864
aF0.012178280000000001
aF0.007710800000000002
aF0.00787788
aF0.009001679999999998
aF0.009550679999999999
aF0.011381639999999998
aF0.007666959999999999
aF0.00964828
aF0.010059760000000001
aF0.009926720000000005
aF0.009389400000000001
aF0.007996719999999999
aF0.010315640000000004
aF0.010152280000000003
aF0.011873879999999998
aF0.013233359999999996
aF0.00898024
aF0.012092839999999997
aF0.01426592
aF0.012742159999999999
aF0.008318199999999996
aF0.01223264
aF0.008990960000000004
aF0.01036364
aF0.010672240000000001
aF0.011607800000000003
aF0.013094599999999998
aF0.007365200000000002
aF0.011130119999999997
aF0.008678040000000001
aF0.01075892
aF0.01234568
aF0.009730959999999997
aF0.011962440000000005
aF0.011340160000000004
aF0.01180468
aF0.01289916
aF0.010262120000000001
aF0.012530960000000002
aF0.01200576
aF0.010215919999999998
aF0.00925432
aF0.01665256
aF0.009944840000000007
aF0.007388880000000001
ass(g1
(g5
S'\xcd\xcc\xcc\xcc\xcc\xcc\xe4?'
p34
tp35
Rp36
I32
tp37
(dp38
g13
(lp39
F0.2451415200000001
aF0.2428369599999998
aF0.29308772000000016
aF0.25097076
aF0.2599206400000003
aF0.27094452
aF0.25473783999999994
aF0.26108964
aF0.2883271200000002
aF0.27068183999999945
aF0.24971931999999986
aF0.23620512000000032
aF0.28089983999999973
aF0.2588105199999997
aF0.2676390000000001
aF0.2637024400000002
aF0.2622558800000002
aF0.2551965600000007
aF0.28414808000000036
aF0.28282671999999964
aF0.26236707999999964
aF0.23013347999999953
aF0.26279571999999995
aF0.25479464
aF0.26740988000000016
aF0.27605996000000044
aF0.2733787600000006
aF0.27820952000000027
aF0.27239784
aF0.2914924400000001
aF0.2805984400000003
aF0.2609144399999998
aF0.26823751999999995
aF0.2772256000000003
aF0.26036872000000005
aF0.24618475999999956
aF0.24218876000000067
aF0.2555560400000001
aF0.26133468000000004
aF0.26908028
aF0.2613072
aF0.2684026399999997
aF0.2496935200000001
aF0.2561393999999998
aF0.26945652000000037
aF0.2599877199999997
aF0.2899806400000005
aF0.26618619999999943
aF0.24364987999999943
aF0.2656519599999998
ass(g23
I8
tp40
(dp41
g13
(lp42
F0.06859107999999994
aF0.06375903999999999
aF0.07057232000000005
aF0.06641372
aF0.07664688000000013
aF0.07094936000000003
aF0.07471056000000009
aF0.07621060000000002
aF0.06330071999999999
aF0.06955248
aF0.07794776000000009
aF0.06559083999999993
aF0.07616032
aF0.06908280000000008
aF0.06811183999999999
aF0.05388728
aF0.07645292000000004
aF0.07533612000000003
aF0.06868408000000005
aF0.06999524000000004
aF0.07365948
aF0.07205611999999997
aF0.08090272
aF0.08122011999999987
aF0.07782396000000001
aF0.06959423999999993
aF0.07377216000000007
aF0.07103843999999997
aF0.09205724
aF0.08709540000000005
aF0.06007972000000006
aF0.07788371999999996
aF0.07930896000000005
aF0.08052680000000004
aF0.10013595999999995
aF0.07413896000000005
aF0.07262935999999998
aF0.08012755999999994
aF0.06944552
aF0.07980116000000005
aF0.07945823999999999
aF0.07310951999999996
aF0.07595763999999994
aF0.07440795999999994
aF0.08568315999999994
aF0.06961744000000006
aF0.07833200000000005
aF0.08328415999999997
aF0.06085812
aF0.08186028
ass(g1
(g5
S'\x9a\x99\x99\x99\x99\x99\xe9?'
p43
tp44
Rp45
I4
tp46
(dp47
S'p_real_lst'
p48
(lp49
F0.059494040000000005
aF0.06413420000000006
aF0.06032516
aF0.06191267999999996
aF0.058022759999999965
aF0.05793940000000002
aF0.05215904000000003
aF0.057502200000000024
aF0.06514111999999998
aF0.06478892000000003
aF0.055402839999999995
aF0.05279520000000001
aF0.058363759999999994
aF0.06344408000000003
aF0.054437440000000004
aF0.052592599999999996
aF0.060488959999999994
aF0.06015364000000001
aF0.06412487999999998
aF0.055077440000000005
aF0.07318303999999995
aF0.05701624
aF0.05470404000000005
aF0.05090007999999996
aF0.061858439999999994
aF0.05638179999999998
aF0.054046119999999954
aF0.049147119999999996
aF0.05924907999999996
aF0.06376836000000004
aF0.062119879999999975
aF0.06421668
aF0.06885483999999999
aF0.05935339999999999
aF0.06368943999999997
aF0.059455680000000025
aF0.06677248000000001
aF0.05487891999999999
aF0.05638684000000005
aF0.055213479999999975
aF0.045193920000000005
aF0.07074588000000011
aF0.062100840000000025
aF0.05521067999999998
aF0.06591391999999999
aF0.06110324000000002
aF0.05698859999999998
aF0.056974960000000005
aF0.05851543999999999
aF0.047810520000000016
ass(g1
(g5
S'\x00\x00\x00\x00\x00\x00\xd0?'
p50
tp51
Rp52
I32
tp53
(dp54
g13
(lp55
F0.005277120000000001
aF0.006524760000000002
aF0.008598640000000001
aF0.006232440000000001
aF0.0062816400000000015
aF0.006245400000000002
aF0.006194159999999999
aF0.006042720000000001
aF0.004999840000000001
aF0.0034291200000000003
aF0.006517480000000001
aF0.005574119999999999
aF0.007440800000000003
aF0.005304519999999999
aF0.00642476
aF0.0073351599999999986
aF0.0038351199999999996
aF0.00608592
aF0.007124159999999999
aF0.00548036
aF0.00404196
aF0.00540012
aF0.0064367600000000014
aF0.006975199999999998
aF0.0059698799999999995
aF0.0060728000000000015
aF0.00596172
aF0.006761920000000001
aF0.00474844
aF0.00595116
aF0.0051954
aF0.00469492
aF0.005761160000000001
aF0.006924239999999999
aF0.007199840000000002
aF0.00373532
aF0.006922480000000001
aF0.00452168
aF0.00754384
aF0.004541760000000001
aF0.00598528
aF0.00702632
aF0.006098639999999999
aF0.006582760000000002
aF0.00773868
aF0.00603352
aF0.00695516
aF0.004964080000000001
aF0.005777079999999999
aF0.006412440000000002
ass(g1
(g5
S'\xcd\xcc\xcc\xcc\xcc\xcc\xdc?'
p56
tp57
Rp58
I4
tp59
(dp60
g48
(lp61
F0.00235592
aF0.0012377200000000003
aF0.0033655600000000005
aF0.0024386399999999997
aF0.00106284
aF0.00226744
aF0.00205376
aF0.0017496800000000002
aF0.00216912
aF0.0017198400000000003
aF0.0024078400000000005
aF0.0029959600000000006
aF0.0020785199999999995
aF0.0029198000000000006
aF0.0036226
aF0.00220824
aF0.002504
aF0.00190848
aF0.00152544
aF0.0007929599999999999
aF0.0017487599999999998
aF0.0015218799999999998
aF0.00157608
aF0.00158632
aF0.0025536400000000002
aF0.0022300400000000004
aF0.0016213600000000003
aF0.0013888799999999999
aF0.00209224
aF0.00154528
aF0.0019475600000000003
aF0.0013503599999999997
aF0.0017678400000000001
aF0.00287012
aF0.00183168
aF0.00221884
aF0.0017438400000000006
aF0.00240912
aF0.00173508
aF0.0023972000000000004
aF0.0014668400000000003
aF0.0024494
aF0.0026688400000000004
aF0.0020755600000000006
aF0.00211472
aF0.0023983999999999998
aF0.00208004
aF0.0018817599999999997
aF0.0028261600000000007
aF0.00224564
ass(g1
(g5
S'433333\xe3?'
p62
tp63
Rp64
I16
tp65
(dp66
g13
(lp67
F0.11184859999999996
aF0.10750804
aF0.10159023999999996
aF0.10262151999999991
aF0.09542363999999999
aF0.08882888000000014
aF0.09058171999999998
aF0.09086160000000004
aF0.10022744000000014
aF0.09316927999999992
aF0.10504828000000008
aF0.08087372000000001
aF0.1069319200000001
aF0.10796527999999996
aF0.10342728000000007
aF0.09768876000000007
aF0.11230360000000009
aF0.09700455999999999
aF0.09791016000000002
aF0.1163069199999999
aF0.09556028
aF0.09850616000000009
aF0.09023128000000012
aF0.10781204000000004
aF0.10553120000000003
aF0.09256888000000008
aF0.10514431999999996
aF0.10805895999999997
aF0.11142071999999996
aF0.09395012000000007
aF0.10201652000000008
aF0.10766119999999982
aF0.08971136000000006
aF0.09621820000000003
aF0.10388299999999995
aF0.11155124000000001
aF0.10716344000000015
aF0.09339072000000015
aF0.09359339999999998
aF0.10282847999999987
aF0.10580500000000007
aF0.11952936000000015
aF0.10169611999999989
aF0.11028444
aF0.10332575999999997
aF0.09009472
aF0.11241340000000002
aF0.10768999999999987
aF0.09348188000000016
aF0.11811924000000006
ass(g1
(g5
S'433333\xd3?'
p68
tp69
Rp70
I4
tp71
(dp72
g48
(lp73
F0.0005760400000000001
aF0.0007247200000000001
aF0.0008972
aF0.0013408799999999998
aF0.0016986000000000004
aF0.0007092400000000001
aF0.0005475600000000001
aF0.00062924
aF0.0008925999999999999
aF0.00061972
aF0.00076236
aF0.0013942
aF0.0005203600000000001
aF0.0014366400000000003
aF0.00076764
aF0.00095392
aF0.0005505200000000001
aF0.00097716
aF0.0011863200000000003
aF0.0006474
aF0.00078292
aF0.00020491999999999998
aF0.00111704
aF0.00070308
aF0.00097592
aF0.00072536
aF0.0006898
aF0.00099464
aF0.00051712
aF0.00121224
aF0.00091676
aF0.001098
aF0.0015124
aF0.0012380400000000001
aF0.00055992
aF0.0009880400000000001
aF0.0007358800000000001
aF0.000617
aF0.0006190000000000001
aF0.0005580400000000001
aF0.0008114800000000001
aF0.00044724
aF0.0008725600000000001
aF0.0013821600000000003
aF0.00079788
aF0.0008643200000000001
aF0.00046672000000000006
aF0.00077512
aF0.0005008800000000001
aF0.0012157600000000002
ass(g1
(g5
S'\x00\x00\x00\x00\x00\x00\xd0?'
p74
tp75
Rp76
I4
tp77
(dp78
g48
(lp79
F0.00065288
aF0.00046764
aF0.0011707599999999999
aF0.0007167200000000001
aF0.0008794000000000001
aF0.0010448000000000002
aF0.00014824
aF0.00101192
aF0.0010035999999999999
aF0.0010252
aF0.0007250000000000001
aF0.0007287200000000001
aF0.0012574799999999998
aF0.0005698400000000001
aF0.00028412000000000006
aF0.00085192
aF0.0009673999999999999
aF0.00059276
aF0.00033120000000000003
aF0.00075472
aF0.0011552400000000003
aF0.00055404
aF0.00060108
aF0.00063032
aF0.00083024
aF0.00029200000000000005
aF0.0006734
aF0.00090616
aF0.0007696800000000001
aF0.00038288000000000005
aF0.0008144800000000001
aF0.00057624
aF0.00091876
aF0.000644
aF0.00098436
aF0.00107824
aF0.00070692
aF0.00043524000000000004
aF0.00045068
aF0.0005857200000000001
aF0.0009464400000000001
aF0.00042896000000000004
aF0.00071588
aF0.0012381999999999998
aF0.00033455999999999997
aF0.00066528
aF0.0005144800000000001
aF0.00081636
aF0.00064416
aF0.00033947999999999997
ass(g1
(g5
S'\x9a\x99\x99\x99\x99\x99\xa9?'
p80
tp81
Rp82
I24
tp83
(dp84
g13
(lp85
F0.00080572
aF0.00095744
aF0.00091708
aF0.0013415599999999999
aF0.00119248
aF0.0007984
aF0.00121856
aF0.0014147200000000002
aF0.00136336
aF0.0015261200000000002
aF0.00048012
aF0.0009445599999999999
aF0.0010252
aF0.0013184
aF0.0009044000000000001
aF0.0015750800000000002
aF0.00039264
aF0.0012405200000000002
aF0.00081472
aF0.00110888
aF0.00105112
aF0.0014344800000000001
aF0.0018881200000000003
aF0.00048652000000000005
aF0.00098184
aF0.0008830800000000001
aF0.00196088
aF0.0020450800000000003
aF0.0013348000000000001
aF0.0007654000000000001
aF0.0018814
aF0.00137048
aF0.000842
aF0.0011936400000000002
aF0.00092804
aF0.0012372
aF0.0007446
aF0.0019128799999999998
aF0.00103132
aF0.0011144
aF0.00088408
aF0.00060928
aF0.0013364
aF0.0015390000000000002
aF0.0013839200000000003
aF0.0016481999999999998
aF0.00077808
aF0.00102932
aF0.00179448
aF0.00101096
ass(g1
(g5
S'433333\xd3?'
p86
tp87
Rp88
I8
tp89
(dp90
g13
(lp91
F0.0014938400000000002
aF0.0022083200000000006
aF0.0015449200000000002
aF0.0021569199999999997
aF0.00274156
aF0.0018212400000000004
aF0.00230332
aF0.00192604
aF0.0016960800000000002
aF0.00204288
aF0.00078272
aF0.0016840400000000001
aF0.00280248
aF0.00165992
aF0.00202052
aF0.0024972799999999997
aF0.00209472
aF0.00196216
aF0.00184508
aF0.00224864
aF0.0016778399999999999
aF0.00061988
aF0.00136404
aF0.0025486399999999996
aF0.0017448000000000003
aF0.0010449600000000002
aF0.0016594799999999999
aF0.00218824
aF0.00216596
aF0.00123576
aF0.00166656
aF0.00213268
aF0.0013022799999999998
aF0.0021279199999999997
aF0.00205404
aF0.00147776
aF0.0021597599999999997
aF0.00194628
aF0.0017547600000000004
aF0.0019354399999999999
aF0.0021432
aF0.0017536000000000001
aF0.00233444
aF0.0014252400000000004
aF0.0024649999999999997
aF0.0012100000000000001
aF0.002885480000000001
aF0.0014452400000000002
aF0.00224728
aF0.0025858400000000007
ass(g1
(g5
S'gfffff\xee?'
p92
tp93
Rp94
I4
tp95
(dp96
g48
(lp97
F0.13978120000000022
aF0.1540830399999999
aF0.13952488000000013
aF0.15751012000000003
aF0.15139120000000034
aF0.1415313600000001
aF0.1565943600000003
aF0.15163795999999977
aF0.1641856399999996
aF0.16241096000000027
aF0.14410680000000003
aF0.14939692000000007
aF0.14892403999999979
aF0.15310607999999984
aF0.15675904000000013
aF0.16747780000000015
aF0.17617479999999958
aF0.13848100000000002
aF0.15271516000000002
aF0.16833079999999986
aF0.1549103199999997
aF0.13519339999999988
aF0.14617219999999972
aF0.15250404
aF0.1494501599999999
aF0.17546891999999997
aF0.16852239999999993
aF0.14456092
aF0.15650488000000012
aF0.15052823999999984
aF0.15154183999999982
aF0.15068964000000015
aF0.16918107999999998
aF0.16354227999999982
aF0.16640756000000012
aF0.15176048000000003
aF0.15595623999999972
aF0.16094887999999968
aF0.15801484000000007
aF0.15632947999999983
aF0.13960024000000004
aF0.15100507999999985
aF0.1516154400000003
aF0.1653235199999998
aF0.15194236000000028
aF0.17586296000000007
aF0.15484475999999994
aF0.1485246399999997
aF0.14671112000000006
aF0.14209172000000003
ass(g1
(g5
S'\x9a\x99\x99\x99\x99\x99\xb9?'
p98
tp99
Rp100
I32
tp101
(dp102
g13
(lp103
F0.0022134
aF0.00145176
aF0.0022104000000000004
aF0.0020374
aF0.0025805199999999998
aF0.00134048
aF0.00307676
aF0.00155532
aF0.0011431199999999999
aF0.0016854799999999998
aF0.00183812
aF0.00146552
aF0.0013954000000000002
aF0.0018377600000000003
aF0.00223776
aF0.00153892
aF0.0013734399999999999
aF0.00113056
aF0.00173564
aF0.0015742
aF0.0025560799999999996
aF0.0015234800000000002
aF0.0018559600000000002
aF0.0021856400000000004
aF0.00159704
aF0.00148156
aF0.0013092800000000003
aF0.00124324
aF0.0019076400000000004
aF0.00197332
aF0.001698
aF0.00102672
aF0.00164568
aF0.00154304
aF0.0025303200000000004
aF0.0015611199999999998
aF0.00274936
aF0.0018002400000000003
aF0.0017847999999999996
aF0.0017286
aF0.0014138800000000002
aF0.00177224
aF0.00212044
aF0.00184168
aF0.00170728
aF0.0011084800000000002
aF0.00157272
aF0.0017536000000000001
aF0.0013217200000000002
aF0.0011790400000000003
ass(g82
I16
tp104
(dp105
g13
(lp106
F0.0004504
aF0.0010566
aF0.0009364
aF0.00162976
aF0.00103068
aF0.0009504400000000001
aF0.00171944
aF0.00182572
aF0.00121512
aF0.0020408000000000006
aF0.00108116
aF0.00158592
aF0.00083204
aF0.00177316
aF0.00153844
aF0.0006224400000000001
aF0.0009566800000000001
aF0.00074708
aF0.0012151999999999998
aF0.0018322399999999997
aF0.0008974400000000001
aF0.0017602000000000002
aF0.00033863999999999997
aF0.0012995600000000002
aF0.0011910000000000002
aF0.00129648
aF0.0011312800000000001
aF0.0015175199999999998
aF0.00085724
aF0.0010558
aF0.0010480799999999998
aF0.00051552
aF0.0010370000000000002
aF0.0013301600000000004
aF0.0013722
aF0.00160368
aF0.0010456
aF0.0008444000000000001
aF0.0010920399999999999
aF0.00073936
aF0.00058436
aF0.00093276
aF0.0009011199999999999
aF0.0014772000000000001
aF0.00123248
aF0.0009158
aF0.00140332
aF0.0012623600000000001
aF0.0016319200000000002
aF0.00096476
ass(g1
(g5
S'\x9a\x99\x99\x99\x99\x99\xe1?'
p107
tp108
Rp109
I32
tp110
(dp111
g13
(lp112
F0.12544304000000006
aF0.11897515999999989
aF0.1275882400000002
aF0.11383948000000008
aF0.10682876000000002
aF0.12365796000000015
aF0.12031015999999982
aF0.12692443999999994
aF0.11093192000000006
aF0.1086776799999999
aF0.13067124000000002
aF0.10898088000000021
aF0.1255992799999998
aF0.13514879999999987
aF0.12177684000000004
aF0.1316540399999999
aF0.12097524000000007
aF0.11080692000000003
aF0.13311612000000003
aF0.10619155999999999
aF0.1351346400000001
aF0.11704627999999992
aF0.10837468000000007
aF0.11553860000000005
aF0.10169600000000002
aF0.1221622400000002
aF0.13125039999999985
aF0.11958884000000013
aF0.1305941599999999
aF0.10939083999999999
aF0.12934944000000004
aF0.12227923999999994
aF0.14707852000000007
aF0.11830668000000016
aF0.11821711999999986
aF0.13534784
aF0.11571936000000006
aF0.11398195999999985
aF0.11853944000000002
aF0.10611200000000008
aF0.12641647999999991
aF0.11204776000000011
aF0.12156888000000016
aF0.1159351200000001
aF0.12305447999999995
aF0.13667920000000003
aF0.14122000000000004
aF0.1331326799999999
aF0.13694643999999992
aF0.13436455999999983
ass(g1
(g5
S'\xcd\xcc\xcc\xcc\xcc\xcc\xec?'
p113
tp114
Rp115
I6
tp116
(dp117
g32
(lp118
F0.18327848000000005
aF0.1842285999999997
aF0.18572004000000017
aF0.1826341199999997
aF0.17646103999999943
aF0.15306679999999975
aF0.18439531999999995
aF0.1952449600000002
aF0.18888356000000012
aF0.19485643999999977
aF0.18233088000000008
aF0.19404388000000003
aF0.1562139599999998
aF0.17375604000000017
aF0.19019604000000015
aF0.18051479999999984
aF0.19330912000000025
aF0.13922388
aF0.17947415999999988
aF0.17004812000000008
aF0.18869340000000015
aF0.18647416
aF0.19277284000000008
aF0.18110628000000029
aF0.18230335999999991
aF0.16678788000000008
aF0.18072507999999993
aF0.18067740000000013
aF0.1871395200000001
aF0.17792075999999993
aF0.19467083999999996
aF0.19488644000000005
aF0.17485583999999998
aF0.1925759199999998
aF0.17182784
aF0.19570423999999995
aF0.18139991999999985
aF0.18318959999999973
aF0.17657176000000008
aF0.18072743999999985
aF0.18912147999999984
aF0.17390807999999974
aF0.1661939599999997
aF0.18267743999999997
aF0.18767196000000005
aF0.21386260000000007
aF0.16498023999999992
aF0.18859664
aF0.1982012399999999
aF0.15943624000000012
ass(g1
(g5
S'gfffff\xe6?'
p119
tp120
Rp121
I6
tp122
(dp123
g32
(lp124
F0.051482080000000006
aF0.0457136
aF0.05290727999999998
aF0.04431636
aF0.04985504000000004
aF0.030368999999999986
aF0.04599884000000005
aF0.04209536000000002
aF0.046625800000000044
aF0.04539864000000003
aF0.051957000000000066
aF0.04420752000000003
aF0.05060856000000001
aF0.04390928000000001
aF0.040294240000000016
aF0.05166571999999998
aF0.051862240000000004
aF0.03705964000000002
aF0.03971311999999999
aF0.03842455999999998
aF0.05075544
aF0.049347279999999986
aF0.05418071999999998
aF0.04283667999999998
aF0.04263219999999999
aF0.04929064
aF0.056887879999999995
aF0.0464372
aF0.03731024
aF0.04833339999999993
aF0.04506852000000003
aF0.046466280000000026
aF0.03846672
aF0.05163839999999998
aF0.04264668
aF0.04405412000000001
aF0.03943836000000001
aF0.04995619999999996
aF0.04451200000000002
aF0.04286676000000003
aF0.03998875999999999
aF0.04693560000000004
aF0.04863079999999997
aF0.03953296000000001
aF0.046812320000000004
aF0.045578360000000005
aF0.044877120000000006
aF0.04530052000000006
aF0.04468359999999998
aF0.03930263999999999
ass(g88
I24
tp125
(dp126
g13
(lp127
F0.010708520000000004
aF0.009013840000000002
aF0.010465480000000001
aF0.011572679999999998
aF0.008638800000000004
aF0.00849712
aF0.011155519999999999
aF0.011102679999999998
aF0.011211959999999997
aF0.008274040000000002
aF0.009863440000000001
aF0.00872328
aF0.0071967199999999985
aF0.009094080000000004
aF0.010500880000000006
aF0.009891800000000003
aF0.010622520000000002
aF0.012981920000000001
aF0.011103319999999998
aF0.0087352
aF0.010246400000000003
aF0.010234440000000003
aF0.007854320000000003
aF0.011479840000000009
aF0.00877524
aF0.009442159999999998
aF0.008828880000000002
aF0.008876120000000001
aF0.011072559999999997
aF0.010181640000000002
aF0.009096280000000002
aF0.009751959999999999
aF0.00955392
aF0.010388920000000005
aF0.011240120000000003
aF0.008727360000000002
aF0.010105680000000002
aF0.009298039999999999
aF0.009499279999999997
aF0.01003496
aF0.00906012
aF0.009683440000000001
aF0.008490560000000003
aF0.00894912
aF0.010189279999999995
aF0.01006652
aF0.0087934
aF0.007419880000000001
aF0.00978172
aF0.008433200000000004
ass(g1
(g5
S'\xcd\xcc\xcc\xcc\xcc\xcc\xdc?'
p128
tp129
Rp130
I24
tp131
(dp132
g13
(lp133
F0.05274683999999998
aF0.06270948000000001
aF0.04809580000000002
aF0.04858683999999999
aF0.05487588000000001
aF0.04670840000000004
aF0.05155371999999997
aF0.050519279999999944
aF0.061634799999999976
aF0.06243588000000005
aF0.05028867999999997
aF0.05024112000000002
aF0.05509299999999997
aF0.05474475999999999
aF0.05907764
aF0.04617016000000001
aF0.06116292
aF0.04694560000000001
aF0.05223600000000003
aF0.051682839999999966
aF0.06181072000000005
aF0.05317696000000001
aF0.04317556000000001
aF0.045124839999999986
aF0.05248779999999994
aF0.05716172000000005
aF0.04835964000000001
aF0.04610803999999999
aF0.05603319999999998
aF0.05268515999999997
aF0.051058239999999956
aF0.053128959999999954
aF0.06017408000000004
aF0.05227747999999998
aF0.0530718
aF0.05305444000000001
aF0.05950616
aF0.06278584000000006
aF0.05799775999999995
aF0.06179812000000007
aF0.050714119999999974
aF0.057908760000000004
aF0.053450399999999974
aF0.05414039999999999
aF0.04934252
aF0.057463719999999975
aF0.05449408000000003
aF0.05429935999999994
aF0.05048303999999999
aF0.04529540000000003
ass(g1
(g5
S'gfffff\xee?'
p134
tp135
Rp136
I8
tp137
(dp138
g13
(lp139
F0.32769212000000103
aF0.2887988800000002
aF0.2970792800000004
aF0.3480429600000007
aF0.31210772000000053
aF0.3129111200000004
aF0.33530676000000154
aF0.3124293200000005
aF0.3076883599999996
aF0.3326116000000005
aF0.3166328800000008
aF0.32987412000000005
aF0.3144315999999996
aF0.3390789599999985
aF0.35467584000000124
aF0.3105908400000006
aF0.3306392799999999
aF0.32877268000000065
aF0.3262809599999994
aF0.3177098399999999
aF0.32362935999999964
aF0.34176176000000114
aF0.32086563999999906
aF0.30388456000000025
aF0.31742352000000007
aF0.3546397199999995
aF0.3061471999999994
aF0.31406844000000056
aF0.37168143999999986
aF0.31477679999999997
aF0.32086040000000116
aF0.34325684000000073
aF0.34254132000000004
aF0.3480603599999996
aF0.33038556000000063
aF0.3043998800000008
aF0.3248077600000013
aF0.3140703599999993
aF0.31178876000000133
aF0.3317661999999992
aF0.3226406400000011
aF0.32631923999999973
aF0.3405203599999989
aF0.31020715999999937
aF0.32410048000000047
aF0.3118166000000002
aF0.3463650400000007
aF0.30581604000000107
aF0.3257662399999996
aF0.30509819999999976
ass(g1
(g5
S'\x9a\x99\x99\x99\x99\x99\xd9?'
p140
tp141
Rp142
I4
tp143
(dp144
g48
(lp145
F0.0018296000000000002
aF0.0023752800000000004
aF0.0018519600000000002
aF0.00137852
aF0.0011569199999999999
aF0.0018669999999999997
aF0.00144916
aF0.0015664399999999999
aF0.00189032
aF0.0018494800000000001
aF0.0013292
aF0.00166552
aF0.0010118000000000002
aF0.0018467600000000002
aF0.00119964
aF0.00198
aF0.00159044
aF0.0020890800000000005
aF0.00251244
aF0.0017439600000000001
aF0.0018633600000000005
aF0.00110152
aF0.0014067200000000002
aF0.00147228
aF0.00118992
aF0.0011067600000000003
aF0.0010952
aF0.00056444
aF0.00136616
aF0.0017113600000000003
aF0.0022892800000000003
aF0.0013368000000000002
aF0.0017108
aF0.0017284000000000002
aF0.0017068799999999996
aF0.0007308
aF0.0013028399999999998
aF0.0006220800000000001
aF0.0010197200000000002
aF0.0027346000000000002
aF0.00106108
aF0.0018641600000000001
aF0.0020800000000000003
aF0.00084076
aF0.00099152
aF0.00121184
aF0.0018452000000000004
aF0.0012295200000000002
aF0.00081792
aF0.00156236
ass(g1
(g5
S'\x9a\x99\x99\x99\x99\x99\xe9?'
p146
tp147
Rp148
I16
tp149
(dp150
g13
(lp151
F0.38354336000000144
aF0.40956808000000017
aF0.41834852000000106
aF0.3676301999999998
aF0.393149720000001
aF0.3849879200000003
aF0.3919038799999994
aF0.3821216799999996
aF0.39007376000000094
aF0.4201219199999996
aF0.3998580799999997
aF0.3739087200000005
aF0.3965522800000003
aF0.3889006400000028
aF0.441902480000001
aF0.3912645599999994
aF0.3613945200000007
aF0.395922280000001
aF0.3992470800000021
aF0.3876844800000001
aF0.3783867200000015
aF0.3920735999999994
aF0.3767410799999985
aF0.4200330799999987
aF0.36473408000000007
aF0.34197415999999975
aF0.4215422399999994
aF0.3927277600000007
aF0.4049582400000006
aF0.4077113600000003
aF0.4106882400000016
aF0.3663621200000003
aF0.3872270800000006
aF0.40846420000000094
aF0.3851470000000006
aF0.3834041200000007
aF0.37617704000000174
aF0.3853719600000001
aF0.38037560000000065
aF0.3919165199999985
aF0.3720320399999985
aF0.39219620000000044
aF0.34338088000000094
aF0.41464020000000124
aF0.3962751599999999
aF0.38817155999999986
aF0.35946952000000143
aF0.41224919999999976
aF0.4013814800000022
aF0.40955160000000007
ass(g1
(g5
S'\xcd\xcc\xcc\xcc\xcc\xcc\xdc?'
p152
tp153
Rp154
I6
tp155
(dp156
g32
(lp157
F0.00257768
aF0.0025485600000000005
aF0.0042654
aF0.0036094000000000005
aF0.004299159999999999
aF0.0034448399999999994
aF0.0031442
aF0.00216736
aF0.00363784
aF0.0037150399999999993
aF0.00360024
aF0.00344644
aF0.004063320000000001
aF0.003977080000000001
aF0.0031234000000000006
aF0.0034449200000000006
aF0.0029020000000000005
aF0.00402012
aF0.00349836
aF0.0030956400000000006
aF0.0023915599999999996
aF0.002445600000000001
aF0.004061360000000001
aF0.00355924
aF0.0037647600000000002
aF0.0032218800000000003
aF0.00422324
aF0.00370688
aF0.0032256399999999992
aF0.004646920000000001
aF0.0034420800000000006
aF0.0035167199999999992
aF0.00360152
aF0.004606680000000001
aF0.0027261199999999994
aF0.005512960000000001
aF0.004351920000000001
aF0.0034035199999999993
aF0.0019722800000000003
aF0.00468408
aF0.0037146
aF0.003115599999999999
aF0.00395724
aF0.004818919999999999
aF0.0052835600000000005
aF0.0036610800000000006
aF0.0029330000000000003
aF0.005119279999999999
aF0.0032739200000000005
aF0.00408496
ass(g1
(g5
S'gfffff\xd6?'
p158
tp159
Rp160
I6
tp161
(dp162
g32
(lp163
F0.0017357599999999998
aF0.0021519200000000003
aF0.00190096
aF0.00119328
aF0.0009447599999999999
aF0.0012174800000000002
aF0.00113764
aF0.0021406000000000003
aF0.0014226
aF0.00118516
aF0.00096188
aF0.00209296
aF0.00254636
aF0.00134556
aF0.0014798
aF0.0019434799999999998
aF0.0014310399999999997
aF0.00121488
aF0.00212196
aF0.0013482
aF0.002001840000000001
aF0.0026954400000000003
aF0.0010834400000000002
aF0.0015381199999999998
aF0.0021293599999999994
aF0.0019362000000000003
aF0.0017153199999999998
aF0.0018785600000000003
aF0.00165084
aF0.0021125600000000003
aF0.0025741200000000005
aF0.0013737200000000001
aF0.0015017600000000002
aF0.00174676
aF0.0017678400000000001
aF0.00149108
aF0.0017085600000000002
aF0.0015923600000000001
aF0.00237232
aF0.0018877600000000003
aF0.0022847600000000003
aF0.00238028
aF0.00202068
aF0.00236272
aF0.0020896400000000002
aF0.0014981200000000001
aF0.00131604
aF0.0015479200000000002
aF0.0017775199999999999
aF0.00178328
ass(g1
(g5
S'433333\xc3?'
p164
tp165
Rp166
I4
tp167
(dp168
g48
(lp169
F0.0009262800000000001
aF0.00102332
aF0.0006480800000000001
aF0.00057936
aF0.0007905200000000001
aF0.0011484400000000001
aF0.0007392
aF0.00028276
aF0.00037668
aF0.00103756
aF0.00097916
aF0.0007548
aF0.0004902000000000001
aF0.0010295999999999999
aF0.0006874
aF0.00113224
aF0.0007706
aF0.0008562400000000001
aF0.0010522
aF0.00066764
aF0.0011386800000000002
aF0.0011873600000000002
aF0.00041052
aF0.0009736000000000001
aF0.00039824
aF0.0009436
aF0.0005916000000000001
aF0.00083768
aF0.00113436
aF0.00053316
aF0.00057116
aF0.0004248
aF0.0009487600000000001
aF0.0009552000000000001
aF0.00046736
aF0.0008923199999999999
aF0.00037132
aF0.0007524000000000001
aF0.00063108
aF0.00120492
aF0.00053892
aF0.00108272
aF0.0011627600000000003
aF0.00048704
aF0.0004944000000000001
aF0.00053896
aF0.0006123599999999999
aF0.0010484000000000001
aF0.00072636
aF0.00078152
ass(g130
I32
tp170
(dp171
g13
(lp172
F0.050433639999999995
aF0.050712680000000024
aF0.05464759999999997
aF0.045376000000000055
aF0.05427115999999994
aF0.050204720000000015
aF0.04668868000000001
aF0.04526543999999998
aF0.058497959999999974
aF0.04964572000000002
aF0.04630679999999999
aF0.05070996000000004
aF0.04369016
aF0.041484080000000034
aF0.04681232000000001
aF0.04887840000000005
aF0.05282051999999997
aF0.04918027999999999
aF0.05378556000000001
aF0.047914880000000035
aF0.05580464000000003
aF0.0469454
aF0.05263531999999999
aF0.045012599999999986
aF0.04425156000000002
aF0.052581560000000006
aF0.04403756000000002
aF0.050458359999999966
aF0.04973780000000001
aF0.05177000000000002
aF0.04609796000000001
aF0.047297600000000016
aF0.04757816000000002
aF0.05352328000000004
aF0.048219799999999965
aF0.05328036
aF0.053477519999999945
aF0.04304595999999998
aF0.04989927999999998
aF0.041302559999999995
aF0.05113824000000003
aF0.044996480000000026
aF0.05134612000000001
aF0.042866680000000004
aF0.04748347999999998
aF0.042177120000000026
aF0.051278960000000026
aF0.04835859999999998
aF0.06067032000000001
aF0.047864160000000024
ass(g17
I24
tp173
(dp174
g13
(lp175
F0.0019256800000000001
aF0.0024459200000000007
aF0.0034416
aF0.00215404
aF0.0014265200000000001
aF0.0022368400000000004
aF0.0026391200000000004
aF0.0016694799999999999
aF0.00196952
aF0.0030779200000000005
aF0.00258988
aF0.0034032
aF0.00292684
aF0.0015643599999999999
aF0.0028997599999999995
aF0.00229976
aF0.0026445600000000002
aF0.0015942400000000002
aF0.00256284
aF0.0029616
aF0.0026287999999999997
aF0.0029221200000000003
aF0.00117972
aF0.00228268
aF0.0018926400000000001
aF0.0017860000000000005
aF0.0028472799999999998
aF0.00367276
aF0.0019516
aF0.00143796
aF0.00280252
aF0.0014080400000000002
aF0.0026069200000000004
aF0.00278344
aF0.00222012
aF0.0028049200000000007
aF0.0024730399999999997
aF0.0026202400000000002
aF0.00184932
aF0.00297816
aF0.0026001600000000007
aF0.0020415599999999996
aF0.0018560399999999998
aF0.00145672
aF0.0026612000000000003
aF0.0024025600000000006
aF0.0018540800000000001
aF0.0036130800000000007
aF0.0026316400000000006
aF0.0020666400000000002
ass(g1
(g5
S'gfffff\xd6?'
p176
tp177
Rp178
I8
tp179
(dp180
g13
(lp181
F0.0016649600000000003
aF0.0014947199999999997
aF0.00233528
aF0.00240672
aF0.002493
aF0.0026449200000000003
aF0.0034608399999999997
aF0.0023666
aF0.00219432
aF0.0027091199999999998
aF0.0028692799999999997
aF0.00318196
aF0.00249908
aF0.0017633999999999998
aF0.0025512000000000004
aF0.0014895600000000002
aF0.0032154
aF0.0023556400000000004
aF0.00260652
aF0.0023050399999999995
aF0.00208872
aF0.0022364800000000003
aF0.0016302400000000002
aF0.0013898
aF0.0030478000000000007
aF0.003096520000000001
aF0.00222664
aF0.0013013600000000003
aF0.0031149599999999995
aF0.0035055999999999998
aF0.0038664000000000007
aF0.0029590800000000002
aF0.0035884800000000002
aF0.0025528000000000005
aF0.002814680000000001
aF0.0027394
aF0.00256192
aF0.0024333600000000003
aF0.0028544800000000004
aF0.00213296
aF0.0034193600000000006
aF0.0028715600000000004
aF0.00293888
aF0.002726
aF0.0027724399999999997
aF0.0027157199999999996
aF0.0045666
aF0.0033251199999999996
aF0.0028193999999999997
aF0.00294364
ass(g1
(g5
S'\x9a\x99\x99\x99\x99\x99\xd9?'
p182
tp183
Rp184
I8
tp185
(dp186
g13
(lp187
F0.00220928
aF0.0041077599999999985
aF0.0035157599999999997
aF0.00315572
aF0.00424296
aF0.004764240000000001
aF0.0037446399999999996
aF0.00342792
aF0.00261884
aF0.0035009200000000002
aF0.00415808
aF0.005260799999999999
aF0.0031432000000000005
aF0.004591440000000001
aF0.00276192
aF0.004852719999999999
aF0.0035805200000000002
aF0.0034075999999999998
aF0.0048526800000000024
aF0.006832399999999999
aF0.0040292
aF0.004134480000000001
aF0.0039282000000000015
aF0.00418656
aF0.00577408
aF0.004273079999999999
aF0.004881559999999999
aF0.00479076
aF0.004403799999999999
aF0.0030711999999999996
aF0.0034106399999999995
aF0.005143880000000001
aF0.004089680000000001
aF0.00360832
aF0.005493199999999999
aF0.00478456
aF0.0030623600000000005
aF0.00479584
aF0.0039352
aF0.00356176
aF0.0033802800000000007
aF0.00392184
aF0.00698904
aF0.00395328
aF0.004667480000000001
aF0.00449048
aF0.00429876
aF0.0034228000000000006
aF0.005015360000000001
aF0.0032965200000000007
ass(g36
I8
tp188
(dp189
g13
(lp190
F0.045635720000000005
aF0.05596252000000001
aF0.05494564000000002
aF0.04549847999999998
aF0.04403728
aF0.04061888000000002
aF0.04954120000000003
aF0.05109623999999997
aF0.05475995999999998
aF0.05632144000000001
aF0.049761559999999976
aF0.04010024000000005
aF0.049932920000000006
aF0.04642811999999999
aF0.04548752000000002
aF0.04709772
aF0.043328919999999986
aF0.03959595999999999
aF0.04119803999999998
aF0.04900628000000005
aF0.04441312000000003
aF0.051805840000000006
aF0.051689080000000005
aF0.04461772
aF0.05237116000000002
aF0.04528587999999999
aF0.054737640000000025
aF0.03925468000000002
aF0.03826252000000001
aF0.046156440000000014
aF0.04134659999999997
aF0.05171376
aF0.041697280000000066
aF0.04460664
aF0.0415272
aF0.04760387999999998
aF0.05753975999999998
aF0.0511236
aF0.04836264000000003
aF0.04170007999999998
aF0.05634051999999995
aF0.04864679999999998
aF0.04573299999999998
aF0.052588479999999965
aF0.04444048
aF0.045093839999999955
aF0.052700880000000005
aF0.04028748000000002
aF0.041119880000000004
aF0.051475760000000016
ass(g36
I24
tp191
(dp192
g13
(lp193
F0.3300117600000003
aF0.3192481599999996
aF0.3341077599999999
aF0.3180497200000002
aF0.31010011999999965
aF0.36174668000000015
aF0.3275129199999995
aF0.3371325200000003
aF0.3246080799999989
aF0.3185614400000008
aF0.30845332
aF0.33217304000000103
aF0.33042676000000015
aF0.3339973600000012
aF0.3503099600000009
aF0.3098859600000003
aF0.3104730800000002
aF0.3071205599999996
aF0.2853506000000005
aF0.32293988000000073
aF0.33705091999999925
aF0.3229173600000016
aF0.3189633600000001
aF0.3017305600000005
aF0.3218027600000005
aF0.3250966
aF0.32731668000000064
aF0.3186710799999994
aF0.3079577200000003
aF0.3243504400000011
aF0.3143072800000009
aF0.3313888400000002
aF0.33365812000000006
aF0.33848052000000006
aF0.3370439999999998
aF0.29765487999999946
aF0.3297409199999994
aF0.3467236800000013
aF0.34771735999999986
aF0.30513887999999995
aF0.338532320000001
aF0.31380208000000087
aF0.30449516000000015
aF0.32343300000000014
aF0.3302242399999995
aF0.29054592000000057
aF0.3054773600000007
aF0.32963012000000025
aF0.3469443599999995
aF0.29718032000000105
ass(g109
I8
tp194
(dp195
g13
(lp196
F0.018151080000000007
aF0.014149759999999999
aF0.018667520000000007
aF0.013529280000000008
aF0.018457679999999994
aF0.015431720000000005
aF0.01746836
aF0.017484479999999997
aF0.019420520000000014
aF0.015913880000000005
aF0.015733080000000003
aF0.020125959999999995
aF0.01716708
aF0.01457888
aF0.018658159999999997
aF0.017512360000000015
aF0.02128644
aF0.01600492
aF0.020528160000000007
aF0.016117440000000004
aF0.02058939999999999
aF0.019478640000000005
aF0.017770599999999994
aF0.021667320000000004
aF0.013697320000000002
aF0.0177452
aF0.017657720000000012
aF0.019641759999999994
aF0.017754639999999995
aF0.015404640000000002
aF0.015536040000000001
aF0.01747944
aF0.016757599999999997
aF0.018321400000000015
aF0.020903239999999993
aF0.016281880000000002
aF0.016335559999999992
aF0.01889964000000001
aF0.018968480000000006
aF0.021696879999999998
aF0.012445000000000001
aF0.01590844
aF0.01741792
aF0.02027047999999999
aF0.01432492
aF0.02308016
aF0.014183279999999996
aF0.014765400000000003
aF0.015316399999999999
aF0.020939000000000003
ass(g1
(g5
S'433333\xeb?'
p197
tp198
Rp199
I32
tp200
(dp201
g13
(lp202
F0.6295260799999987
aF0.6198953600000029
aF0.5996317199999974
aF0.6064051599999954
aF0.6272874400000061
aF0.6328493999999913
aF0.5936461599999998
aF0.6048468799999958
aF0.6423728800000008
aF0.5951624000000029
aF0.6323584399999985
aF0.6091961600000007
aF0.5984761200000036
aF0.6059796800000036
aF0.6183056800000015
aF0.6291452400000048
aF0.6309923199999975
aF0.6263385599999934
aF0.6038053199999962
aF0.6255261599999932
aF0.6192700799999996
aF0.623546080000006
aF0.5866848399999994
aF0.6106178399999984
aF0.6218727999999989
aF0.6395962800000006
aF0.642199639999995
aF0.612185520000009
aF0.6504546399999964
aF0.6428980399999985
aF0.6276655200000002
aF0.6238845200000014
aF0.6095749999999966
aF0.6362727600000074
aF0.5809023999999998
aF0.611992240000001
aF0.6383629999999991
aF0.6344583199999998
aF0.6020002400000007
aF0.6139603600000005
aF0.6199715199999973
aF0.6060364800000022
aF0.6458894399999995
aF0.6519847600000025
aF0.5879875200000002
aF0.6324709200000009
aF0.614917559999999
aF0.6081406399999965
aF0.6160725600000011
aF0.6135060000000014
ass(g1
(g5
S'\x00\x00\x00\x00\x00\x00\xe0?'
p203
tp204
Rp205
I6
tp206
(dp207
g32
(lp208
F0.0044281599999999996
aF0.004416960000000001
aF0.006206959999999999
aF0.004103520000000001
aF0.005737280000000001
aF0.00744252
aF0.0072229999999999985
aF0.004907120000000002
aF0.00404148
aF0.007068959999999999
aF0.005085279999999999
aF0.0077059999999999984
aF0.00658448
aF0.0057704
aF0.00464512
aF0.005267
aF0.0065248000000000025
aF0.007620919999999999
aF0.0060421200000000015
aF0.0051031600000000015
aF0.00474708
aF0.00617724
aF0.006526679999999999
aF0.0055968400000000005
aF0.006935479999999998
aF0.0052978
aF0.0036852800000000004
aF0.0075092399999999995
aF0.006242800000000002
aF0.005780359999999999
aF0.005698320000000001
aF0.008261600000000003
aF0.0057144
aF0.00496348
aF0.005415000000000001
aF0.00821168
aF0.006380800000000003
aF0.00648428
aF0.006513639999999999
aF0.007504
aF0.00533976
aF0.006779400000000002
aF0.0061426399999999996
aF0.00598532
aF0.004501840000000001
aF0.0056776000000000005
aF0.00599124
aF0.005603400000000001
aF0.005129839999999999
aF0.00550312
ass(g1
(g5
S'\x00\x00\x00\x00\x00\x00\xe0?'
p209
tp210
Rp211
I24
tp212
(dp213
g13
(lp214
F0.0990323999999999
aF0.08383507999999999
aF0.09859840000000004
aF0.10191632
aF0.09563712
aF0.08802616000000005
aF0.08501659999999994
aF0.09933052000000003
aF0.08177964000000004
aF0.10856844000000002
aF0.08768024000000008
aF0.10059264000000008
aF0.08799204000000008
aF0.09174744000000001
aF0.10526443999999999
aF0.08906320000000002
aF0.09241399999999995
aF0.09732464
aF0.08799947999999998
aF0.08506756000000008
aF0.09068732000000006
aF0.09004116000000009
aF0.08188559999999998
aF0.09801740000000003
aF0.08898983999999997
aF0.09781183999999986
aF0.07803715999999995
aF0.08742676000000002
aF0.10498336000000004
aF0.09507088000000004
aF0.09907736000000009
aF0.09553688000000003
aF0.10044664000000005
aF0.08614224000000002
aF0.08662779999999995
aF0.08466244000000003
aF0.10476787999999994
aF0.10690763999999993
aF0.09678792000000003
aF0.0957489600000001
aF0.1023863199999999
aF0.09521143999999991
aF0.09866267999999996
aF0.10088296000000006
aF0.09206740000000005
aF0.08566860000000008
aF0.08903495999999997
aF0.08776324000000002
aF0.08777740000000006
aF0.09341003999999994
ass(g1
(g5
S'433333\xe3?'
p215
tp216
Rp217
I4
tp218
(dp219
g48
(lp220
F0.013561559999999999
aF0.005956120000000001
aF0.0073414000000000005
aF0.009015959999999998
aF0.009592600000000003
aF0.00894912
aF0.010498319999999998
aF0.0076126
aF0.008368680000000002
aF0.00786344
aF0.00863952
aF0.008246440000000002
aF0.009829400000000002
aF0.011267720000000002
aF0.00854732
aF0.0060235200000000036
aF0.009187120000000002
aF0.00922096
aF0.00773068
aF0.007801959999999998
aF0.011321959999999999
aF0.011250120000000004
aF0.011122959999999998
aF0.007713719999999999
aF0.01091712
aF0.0086596
aF0.009785640000000003
aF0.009788960000000001
aF0.009411439999999998
aF0.006859280000000001
aF0.008129519999999998
aF0.007805200000000002
aF0.00713232
aF0.011447999999999996
aF0.007827959999999998
aF0.01012624
aF0.00913164
aF0.007594239999999999
aF0.00615252
aF0.009143640000000001
aF0.00657916
aF0.010105360000000004
aF0.010159960000000004
aF0.009032920000000002
aF0.008613160000000002
aF0.007481560000000003
aF0.014273920000000002
aF0.00966972
aF0.0071090799999999985
aF0.010136760000000003
ass(g1
(g5
S'\x9a\x99\x99\x99\x99\x99\xb9?'
p221
tp222
Rp223
I4
tp224
(dp225
g48
(lp226
F0.00033248
aF0.00023880000000000003
aF0.0011048800000000001
aF0.00063196
aF0.00107356
aF0.00030807999999999996
aF0.0015962400000000003
aF0.00080368
aF0.00073172
aF0.0009620400000000002
aF0.0013069600000000002
aF0.00050088
aF0.00085632
aF0.00089712
aF0.0008032
aF0.0006573600000000001
aF0.00050204
aF0.0008804800000000001
aF0.00098704
aF0.00044768
aF0.0005126
aF0.0007468800000000001
aF0.0012422400000000001
aF0.0007414400000000001
aF0.00103116
aF0.0010554800000000001
aF0.00121976
aF0.00061804
aF0.0005869200000000001
aF0.00059712
aF0.00050864
aF0.0006348
aF0.00068316
aF0.00038256
aF0.0019118800000000001
aF0.0009056000000000001
aF0.0007676400000000001
aF0.0006689600000000001
aF0.0008768799999999999
aF0.0004436
aF0.0005954
aF0.0007688400000000001
aF0.0011996
aF0.00107188
aF0.0013244799999999998
aF0.00045692
aF0.00089252
aF0.00031811999999999997
aF0.00028888000000000004
aF0.0005336
ass(g1
(g5
S'\x9a\x99\x99\x99\x99\x99\xc9?'
p227
tp228
Rp229
I16
tp230
(dp231
g13
(lp232
F0.00212668
aF0.0017783999999999999
aF0.00329744
aF0.0020409200000000003
aF0.0008121999999999999
aF0.002845480000000001
aF0.00258308
aF0.00257512
aF0.00257816
aF0.00253768
aF0.0020607600000000005
aF0.0016109999999999996
aF0.00194972
aF0.00192456
aF0.0032526800000000004
aF0.00211536
aF0.0018183599999999998
aF0.003364480000000001
aF0.0020352400000000002
aF0.0020836400000000003
aF0.00242892
aF0.0014401600000000002
aF0.00200204
aF0.0018182400000000005
aF0.0033034799999999997
aF0.0022688
aF0.00327072
aF0.00178976
aF0.00142212
aF0.00217492
aF0.0025697200000000006
aF0.0022932000000000004
aF0.0033088
aF0.0022578000000000003
aF0.0013784000000000001
aF0.00298988
aF0.0025484400000000003
aF0.0016317999999999999
aF0.0022417599999999998
aF0.0028744799999999996
aF0.0019470800000000001
aF0.0021824000000000006
aF0.00332992
aF0.0026008000000000003
aF0.0016277600000000002
aF0.00154804
aF0.0018369999999999999
aF0.0019258400000000003
aF0.0015713600000000002
aF0.0024575200000000004
ass(g1
(g5
S'433333\xeb?'
p233
tp234
Rp235
I6
tp236
(dp237
g32
(lp238
F0.14321148000000014
aF0.12793423999999998
aF0.13516928000000009
aF0.14125512000000007
aF0.12586703999999999
aF0.14483824000000012
aF0.14638716
aF0.15757596000000013
aF0.15158092000000006
aF0.1354967600000001
aF0.14219171999999983
aF0.13476616000000016
aF0.16034272000000016
aF0.13509272000000008
aF0.1460742
aF0.15208771999999973
aF0.15318624
aF0.1461911200000001
aF0.13787475999999999
aF0.1436668799999999
aF0.1370236399999998
aF0.12460580000000003
aF0.1453547200000001
aF0.14018884000000031
aF0.1349286399999998
aF0.1397875200000002
aF0.1380873199999999
aF0.14510815999999996
aF0.1297445599999999
aF0.14437115999999992
aF0.1419168000000001
aF0.12392503999999999
aF0.13033348000000006
aF0.13104823999999993
aF0.15008356000000003
aF0.14726427999999975
aF0.13354887999999998
aF0.1467765600000001
aF0.13968860000000005
aF0.1433536799999997
aF0.14189396000000007
aF0.14631955999999988
aF0.1542664
aF0.14445779999999991
aF0.12129487999999997
aF0.13471120000000006
aF0.12813764000000014
aF0.12619648000000014
aF0.15281259999999988
aF0.12894752
ass(g136
I32
tp239
(dp240
g13
(lp241
F0.7477532799999935
aF0.7515710399999889
aF0.7119806399999871
aF0.7558839599999937
aF0.7396373200000049
aF0.7286907599999948
aF0.7584092399999938
aF0.7318541999999917
aF0.7587978800000038
aF0.7498098399999974
aF0.762406359999996
aF0.7432853199999998
aF0.7439680399999978
aF0.763329440000003
aF0.743922879999989
aF0.7430337200000038
aF0.7650821200000065
aF0.7454558399999911
aF0.7724387199999854
aF0.7541646800000037
aF0.7532884800000114
aF0.7493054399999919
aF0.7331773599999938
aF0.7648883200000116
aF0.7809699599999986
aF0.7684430800000019
aF0.7548476399999924
aF0.7687133999999977
aF0.7410638399999974
aF0.763414359999994
aF0.7532621199999974
aF0.7329773599999934
aF0.7753856399999817
aF0.7474537199999957
aF0.7562070000000034
aF0.7594588800000084
aF0.757422159999998
aF0.7465367200000089
aF0.7313544399999831
aF0.7575062799999941
aF0.7646873599999922
aF0.7757418799999919
aF0.7832747199999871
aF0.7414446800000041
aF0.7508363600000025
aF0.7605215199999882
aF0.772819560000004
aF0.7711027999999828
aF0.732783759999992
aF0.7643065199999892
ass(g1
(g5
S'\x9a\x99\x99\x99\x99\x99\xd9?'
p242
tp243
Rp244
I6
tp245
(dp246
g32
(lp247
F0.00213964
aF0.0016297599999999998
aF0.00145036
aF0.00207468
aF0.0022633199999999997
aF0.0019060000000000001
aF0.00154212
aF0.00168884
aF0.00176992
aF0.0023894000000000003
aF0.00198544
aF0.0021316000000000004
aF0.0021558000000000003
aF0.00215576
aF0.0019803200000000003
aF0.003460200000000001
aF0.0023798000000000005
aF0.0027348400000000005
aF0.0031165200000000002
aF0.00212636
aF0.0036402400000000003
aF0.0019627600000000005
aF0.0027786800000000004
aF0.0019927600000000005
aF0.0028926000000000004
aF0.0021499199999999996
aF0.0023566000000000004
aF0.00249328
aF0.0021463199999999997
aF0.0025664400000000006
aF0.0018542400000000003
aF0.0025608400000000004
aF0.0020434800000000003
aF0.00241084
aF0.0020814400000000004
aF0.00277576
aF0.0019205600000000002
aF0.0022791200000000004
aF0.0027243599999999995
aF0.00195656
aF0.0032757600000000004
aF0.0038495600000000006
aF0.0026712000000000003
aF0.0017990400000000002
aF0.0031704800000000003
aF0.0024874799999999994
aF0.00189792
aF0.0035382800000000004
aF0.0018094
aF0.0026112
ass(g100
I8
tp248
(dp249
g13
(lp250
F0.00074796
aF0.0012292400000000002
aF0.0008990400000000001
aF0.00168052
aF0.00159324
aF0.0011676800000000002
aF0.0026387999999999993
aF0.00082428
aF0.0007048000000000001
aF0.0009067999999999999
aF0.00157708
aF0.00045252
aF0.00082676
aF0.00115552
aF0.00044992000000000003
aF0.0013737200000000001
aF0.00189988
aF0.00110732
aF0.0012117599999999999
aF0.00133084
aF0.00068136
aF0.0005905200000000001
aF0.00083824
aF0.000778
aF0.00092956
aF0.0010943200000000002
aF0.00054852
aF0.0005068
aF0.0007736
aF0.0005857200000000001
aF0.00094628
aF0.0008019200000000001
aF0.0005580000000000001
aF0.00059088
aF0.0006104400000000001
aF0.0007306400000000001
aF0.0012410400000000001
aF0.00133776
aF0.00128936
aF0.00050976
aF0.00108384
aF0.0007466
aF0.00064348
aF0.0011526800000000001
aF0.00091772
aF0.00113716
aF0.0011223199999999998
aF0.0008604800000000001
aF0.0006768
aF0.00056836
ass(g64
I32
tp251
(dp252
g13
(lp253
F0.17014271999999975
aF0.17629459999999983
aF0.20782431999999976
aF0.19000619999999993
aF0.18650720000000007
aF0.17336015999999996
aF0.18038347999999993
aF0.1957357200000002
aF0.2049962399999999
aF0.20880256000000022
aF0.19091747999999997
aF0.19976828000000005
aF0.1727420799999999
aF0.18393783999999994
aF0.20380556000000025
aF0.20990987999999958
aF0.18634624000000008
aF0.19563551999999987
aF0.18869720000000004
aF0.17018575999999985
aF0.17461784000000038
aF0.1934286000000001
aF0.19316584000000014
aF0.1926310000000002
aF0.17354064000000036
aF0.18194639999999998
aF0.17571615999999998
aF0.1931595600000002
aF0.18811603999999962
aF0.18526851999999996
aF0.20843064000000008
aF0.19732516000000005
aF0.17930768000000005
aF0.17966796
aF0.2047293599999996
aF0.18348768
aF0.20829823999999986
aF0.16598991999999999
aF0.17514524000000004
aF0.18879340000000003
aF0.21147112000000018
aF0.1792344400000002
aF0.1940684799999999
aF0.18812676000000003
aF0.1840684
aF0.1993311600000002
aF0.17757643999999995
aF0.18370248000000006
aF0.19597180000000036
aF0.18542048000000017
ass(g136
I16
tp254
(dp255
g13
(lp256
F0.633182240000002
aF0.613373039999997
aF0.5823370399999996
aF0.5731236400000014
aF0.6139461999999958
aF0.633704359999991
aF0.6147679999999878
aF0.5821667200000009
aF0.5853757200000029
aF0.6152133999999966
aF0.6166156399999997
aF0.6046019199999958
aF0.6347733600000004
aF0.6072144799999959
aF0.6079831999999981
aF0.5977506799999956
aF0.630407759999995
aF0.5971543999999971
aF0.5982267599999993
aF0.5876683999999961
aF0.5975725199999964
aF0.5951968799999936
aF0.6155560799999995
aF0.5952000799999998
aF0.588026119999995
aF0.581233
aF0.6050283200000011
aF0.5952097600000038
aF0.5935704799999991
aF0.6174230800000013
aF0.6144820799999974
aF0.6046127200000014
aF0.5722073199999986
aF0.607992760000003
aF0.6279934799999963
aF0.6015089199999964
aF0.6092766399999958
aF0.6048803199999919
aF0.6121123599999914
aF0.6164670399999993
aF0.6129667599999931
aF0.5975372399999951
aF0.6079367199999938
aF0.6296344400000018
aF0.5970270799999947
aF0.6085537200000078
aF0.5841646399999999
aF0.6032951600000028
aF0.6154447600000037
aF0.6040284400000008
ass(g64
I24
tp257
(dp258
g13
(lp259
F0.23210744000000016
aF0.2325944400000002
aF0.24950859999999978
aF0.22933775999999972
aF0.23488888
aF0.21353235999999973
aF0.23740616000000003
aF0.22748572000000028
aF0.23467464000000043
aF0.21308320000000017
aF0.21159159999999996
aF0.24373828000000006
aF0.24957988000000042
aF0.20883608000000017
aF0.25289991999999994
aF0.2381555199999997
aF0.23272751999999985
aF0.24131991999999955
aF0.26419707999999986
aF0.23675383999999988
aF0.22885003999999998
aF0.21314999999999978
aF0.24617819999999987
aF0.2250825199999998
aF0.2349266800000002
aF0.23988523999999994
aF0.23909644000000044
aF0.19789384
aF0.20659335999999967
aF0.24814892000000033
aF0.25313487999999995
aF0.23292236000000005
aF0.2343453200000001
aF0.2595034399999999
aF0.21274984000000005
aF0.21668240000000016
aF0.2537788000000001
aF0.23893460000000025
aF0.23921688000000024
aF0.2276735600000002
aF0.23316723999999966
aF0.22681168000000038
aF0.23245251999999988
aF0.23263760000000025
aF0.24512431999999998
aF0.25696412000000046
aF0.20895268000000006
aF0.2325668000000002
aF0.2330020399999997
aF0.23184759999999982
ass(g10
I32
tp260
(dp261
g13
(lp262
F0.4406744000000012
aF0.44963400000000037
aF0.45593475999999983
aF0.46967059999999905
aF0.4647420000000018
aF0.4894388800000008
aF0.4613670400000013
aF0.46037124000000157
aF0.42450528000000076
aF0.43549444000000104
aF0.3974371600000016
aF0.4427016800000023
aF0.4189234800000002
aF0.43730548
aF0.48675984000000116
aF0.4395794400000003
aF0.4492624399999992
aF0.46177068000000154
aF0.44301508000000067
aF0.44361592000000133
aF0.45425399999999755
aF0.4415835600000008
aF0.45950019999999986
aF0.42887035999999906
aF0.45151644000000163
aF0.4274670000000006
aF0.4630396400000017
aF0.46132040000000046
aF0.46135456000000014
aF0.4460672800000009
aF0.47720280000000115
aF0.4446397200000012
aF0.44412600000000196
aF0.4613269599999994
aF0.46204416000000265
aF0.4614963200000023
aF0.4716648399999986
aF0.46810908000000023
aF0.46572332000000116
aF0.4206070000000026
aF0.4681479200000019
aF0.43848036000000157
aF0.42899212000000086
aF0.4533703600000035
aF0.4364090400000012
aF0.4500665200000005
aF0.45413171999999946
aF0.47430243999999955
aF0.4253163199999999
aF0.4501189199999986
ass(g211
I8
tp263
(dp264
g13
(lp265
F0.0123436
aF0.012266040000000004
aF0.01103844
aF0.008933920000000001
aF0.007565720000000001
aF0.008247560000000003
aF0.01333352
aF0.010702519999999998
aF0.009164559999999997
aF0.009334319999999998
aF0.00765144
aF0.007838399999999999
aF0.009051440000000001
aF0.01160508
aF0.011336439999999998
aF0.010124199999999991
aF0.0086422
aF0.007860399999999998
aF0.011447839999999997
aF0.009041840000000002
aF0.012602959999999995
aF0.008528960000000002
aF0.008309679999999996
aF0.012966160000000001
aF0.010183
aF0.00923364
aF0.012353759999999998
aF0.012483919999999997
aF0.0102278
aF0.011757799999999997
aF0.009787120000000002
aF0.008872319999999998
aF0.008020240000000001
aF0.00938224
aF0.01348348
aF0.011710360000000003
aF0.011530600000000002
aF0.012585560000000004
aF0.01311176000000001
aF0.006605160000000001
aF0.009018519999999995
aF0.00833556
aF0.010931119999999999
aF0.010913799999999998
aF0.00900216
aF0.008434799999999998
aF0.008362479999999999
aF0.00881012
aF0.009990280000000004
aF0.010644639999999997
ass(g10
I8
tp266
(dp267
g13
(lp268
F0.1010132399999999
aF0.11472944
aF0.09411464000000003
aF0.10534252000000005
aF0.11681192000000018
aF0.10260760000000006
aF0.11092880000000008
aF0.10087803999999989
aF0.11370879999999994
aF0.09863391999999989
aF0.10530679999999985
aF0.11022003999999991
aF0.11233324000000008
aF0.10735243999999985
aF0.11630711999999988
aF0.10529372
aF0.10096592000000004
aF0.09974563999999997
aF0.11924531999999989
aF0.12492912000000012
aF0.11321104000000005
aF0.10787775999999999
aF0.11563647999999997
aF0.11692132000000012
aF0.10149532000000004
aF0.11832116000000001
aF0.11998120000000004
aF0.10677372000000009
aF0.09591775999999999
aF0.11084827999999995
aF0.09959127999999987
aF0.10904263999999995
aF0.12239208000000015
aF0.10382019999999995
aF0.11743348000000002
aF0.12653147999999997
aF0.10995956000000005
aF0.12200611999999994
aF0.1157642800000001
aF0.10593240000000005
aF0.10719240000000003
aF0.10112835999999989
aF0.11045784
aF0.09576480000000011
aF0.10010892000000002
aF0.09605099999999991
aF0.10617540000000006
aF0.1005644000000001
aF0.10560259999999994
aF0.10889300000000018
ass(g17
I32
tp269
(dp270
g13
(lp271
F0.0009354
aF0.0025161999999999997
aF0.0025783200000000003
aF0.0026929600000000003
aF0.0022054
aF0.0025896400000000007
aF0.0012242
aF0.0029700399999999997
aF0.0026193199999999996
aF0.0018526000000000003
aF0.00213528
aF0.0032984800000000008
aF0.0019969999999999996
aF0.002607440000000001
aF0.0023528800000000008
aF0.00293756
aF0.00327068
aF0.00225244
aF0.0020729999999999998
aF0.0018260799999999997
aF0.002476800000000001
aF0.00266944
aF0.00246252
aF0.00222208
aF0.0023775600000000004
aF0.0023873600000000003
aF0.0026961600000000004
aF0.0029210000000000004
aF0.00224368
aF0.00269896
aF0.00293488
aF0.0020662800000000006
aF0.0019858000000000002
aF0.00178344
aF0.0031595200000000007
aF0.0025528000000000005
aF0.00239504
aF0.00252084
aF0.0027720400000000004
aF0.0026199199999999995
aF0.0015828
aF0.00297224
aF0.00261904
aF0.00116948
aF0.00319212
aF0.00165284
aF0.00134212
aF0.0024628
aF0.0023950800000000004
aF0.0019032000000000003
ass(g1
(g5
S'\x9a\x99\x99\x99\x99\x99\xb9?'
p272
tp273
Rp274
I6
tp275
(dp276
g32
(lp277
F0.00020788000000000002
aF0.00044408
aF0.00049176
aF0.0011264
aF0.0008189200000000001
aF0.0005013200000000001
aF0.00070436
aF0.0005442800000000001
aF0.00089096
aF0.0007260000000000001
aF0.0012196800000000001
aF0.00061408
aF0.0006990400000000001
aF0.00101928
aF0.0008646000000000001
aF0.00144336
aF0.0008456400000000002
aF0.0007078000000000001
aF0.00114232
aF0.0005013999999999999
aF0.00106992
aF0.0011704
aF0.00062324
aF0.00130512
aF0.0005494
aF0.00120424
aF0.0007746399999999999
aF0.0005077600000000001
aF0.00149212
aF0.00065272
aF0.0008940800000000001
aF0.0011605600000000002
aF0.0009107200000000001
aF0.00098372
aF0.00106084
aF0.0006748
aF0.00056296
aF0.00062336
aF0.0008604400000000001
aF0.00092548
aF0.0006985600000000001
aF0.0007726800000000001
aF0.0011336
aF0.0007727599999999999
aF0.00082676
aF0.00070664
aF0.0009531600000000001
aF0.00052456
aF0.0007604
aF0.00101056
ass(g148
I32
tp278
(dp279
g13
(lp280
F0.5345080000000003
aF0.5587657600000016
aF0.551510040000003
aF0.5371880399999978
aF0.5531426799999989
aF0.5502687999999996
aF0.5251629599999978
aF0.5269388400000016
aF0.5267599600000021
aF0.5538494800000006
aF0.5314671999999977
aF0.5434032399999998
aF0.5287072400000009
aF0.5553238000000065
aF0.5295679199999982
aF0.5257309600000005
aF0.5666780400000045
aF0.5187842000000006
aF0.5628407599999975
aF0.5342539200000044
aF0.5527088800000027
aF0.5221474000000007
aF0.5560962000000018
aF0.5190180800000004
aF0.5267374400000004
aF0.5506510000000021
aF0.5179328400000014
aF0.5277606399999988
aF0.5641404399999975
aF0.5155132800000002
aF0.5669649200000003
aF0.5255831999999994
aF0.5490307600000015
aF0.5582073600000016
aF0.52799072
aF0.5367672799999977
aF0.5332484799999988
aF0.5659154799999974
aF0.5465537199999965
aF0.5447729999999965
aF0.5434104400000014
aF0.5460275999999967
aF0.5475802800000032
aF0.5129921200000005
aF0.5414284799999987
aF0.5013958400000017
aF0.5257614400000028
aF0.5447418000000016
aF0.5929233200000004
aF0.525483679999998
ass(g199
I8
tp281
(dp282
g13
(lp283
F0.19434271999999989
aF0.2062018799999999
aF0.20535967999999968
aF0.21318800000000046
aF0.22535263999999966
aF0.20720588000000012
aF0.22081947999999954
aF0.21738672000000006
aF0.23089763999999954
aF0.21549987999999984
aF0.2169220000000001
aF0.2073938399999999
aF0.20160399999999995
aF0.19506095999999987
aF0.23482567999999934
aF0.20911292000000012
aF0.21413767999999958
aF0.20086003999999993
aF0.21809783999999957
aF0.22008080000000013
aF0.20135272000000007
aF0.2196979199999999
aF0.21073068000000053
aF0.1990626800000002
aF0.17126588000000012
aF0.20770204000000023
aF0.21633907999999966
aF0.18350727999999988
aF0.21954804000000028
aF0.21234243999999994
aF0.23693335999999995
aF0.2277457199999998
aF0.22021284000000005
aF0.19372736000000018
aF0.21710839999999978
aF0.1994699199999997
aF0.21029203999999974
aF0.2088485199999999
aF0.21945124000000057
aF0.20592375999999987
aF0.21839964000000014
aF0.19948412000000013
aF0.2128266799999999
aF0.19615763999999994
aF0.21007535999999996
aF0.2223892799999998
aF0.19189947999999946
aF0.1997108000000001
aF0.23378104000000036
aF0.20586435999999983
ass(g148
I24
tp284
(dp285
g13
(lp286
F0.6008078400000014
aF0.6355441999999988
aF0.6150030000000004
aF0.6116946800000037
aF0.6357160400000037
aF0.6407926800000044
aF0.658520199999998
aF0.6317302000000067
aF0.6115039199999972
aF0.6480251600000002
aF0.6468860000000021
aF0.6177177600000013
aF0.631269680000001
aF0.6338425599999995
aF0.6228672399999978
aF0.5790984800000026
aF0.6185382800000094
aF0.6499151599999986
aF0.6001745999999931
aF0.6196936799999977
aF0.6347065199999983
aF0.6225247599999999
aF0.6252132799999959
aF0.6431979600000007
aF0.656080999999994
aF0.6483951600000024
aF0.6188871999999987
aF0.6369929999999981
aF0.6028737599999999
aF0.6108914400000001
aF0.6135447200000088
aF0.6275723599999932
aF0.6374731599999985
aF0.611402400000001
aF0.6282623999999987
aF0.6407653200000014
aF0.5874354400000049
aF0.656837920000003
aF0.6365344000000046
aF0.6011287600000011
aF0.6435104800000054
aF0.58669152
aF0.6213542000000041
aF0.6128646800000037
aF0.67204851999999
aF0.6242606399999985
aF0.6096515599999982
aF0.6260212800000083
aF0.6238283600000046
aF0.6213641199999987
ass(g178
I16
tp287
(dp288
g13
(lp289
F0.007747640000000002
aF0.006459960000000003
aF0.008074680000000002
aF0.00541288
aF0.006720559999999999
aF0.00979844
aF0.0077307600000000015
aF0.00667804
aF0.007838480000000002
aF0.011989239999999998
aF0.006337560000000002
aF0.0077034799999999995
aF0.010485280000000003
aF0.007168759999999998
aF0.00863748
aF0.005652440000000001
aF0.0077477200000000005
aF0.008784600000000002
aF0.006301360000000001
aF0.007478680000000002
aF0.006809399999999999
aF0.00852768
aF0.00777844
aF0.006268320000000002
aF0.006024199999999998
aF0.007925159999999999
aF0.00818556
aF0.007624279999999997
aF0.006075280000000002
aF0.008109879999999998
aF0.007392120000000003
aF0.0075810400000000016
aF0.007802480000000001
aF0.008292760000000001
aF0.008245240000000001
aF0.005833400000000001
aF0.0064531200000000006
aF0.00745672
aF0.00852304
aF0.007655600000000001
aF0.006120879999999999
aF0.009497040000000002
aF0.009673360000000002
aF0.0060690000000000015
aF0.007599199999999999
aF0.006510039999999999
aF0.0069668
aF0.00788276
aF0.007205640000000001
aF0.006173239999999999
ass(g1
(g5
S'\xcd\xcc\xcc\xcc\xcc\xcc\xe4?'
p290
tp291
Rp292
I4
tp293
(dp294
g48
(lp295
F0.014169279999999998
aF0.011241679999999999
aF0.014247960000000004
aF0.0164688
aF0.01192812
aF0.019344240000000006
aF0.01619931999999999
aF0.01459196
aF0.013152440000000003
aF0.015383880000000003
aF0.015885119999999996
aF0.009357160000000005
aF0.015577719999999998
aF0.014522160000000001
aF0.015804200000000008
aF0.016251880000000003
aF0.013500560000000003
aF0.016727319999999997
aF0.012143120000000004
aF0.015611600000000002
aF0.015977120000000004
aF0.01512336
aF0.014452560000000001
aF0.01644532
aF0.01643416
aF0.011247440000000001
aF0.014825680000000006
aF0.014780239999999997
aF0.01435204
aF0.011102760000000001
aF0.017445920000000004
aF0.01574528
aF0.018653599999999992
aF0.01091696
aF0.02124795999999999
aF0.019767199999999988
aF0.013051999999999989
aF0.01172024
aF0.013173359999999999
aF0.017356120000000003
aF0.014212599999999999
aF0.016483239999999993
aF0.012439080000000002
aF0.016607360000000005
aF0.01770984000000001
aF0.015989559999999996
aF0.015443720000000001
aF0.014743919999999999
aF0.012469600000000006
aF0.011195759999999997
ass(g100
I24
tp296
(dp297
g13
(lp298
F0.00121936
aF0.0007723200000000001
aF0.0017495600000000003
aF0.0017338800000000001
aF0.00124268
aF0.00146272
aF0.00187004
aF0.00136596
aF0.0014603600000000002
aF0.0011115600000000002
aF0.00176724
aF0.00197276
aF0.00187736
aF0.0009456800000000002
aF0.00103276
aF0.0006399600000000002
aF0.0010902400000000001
aF0.0020024
aF0.00274628
aF0.0014346000000000003
aF0.00154956
aF0.00262312
aF0.00259036
aF0.00112192
aF0.0010270000000000001
aF0.00138148
aF0.00109052
aF0.00149368
aF0.0011427199999999998
aF0.0026918800000000002
aF0.00122096
aF0.00182176
aF0.0011502
aF0.0027271599999999997
aF0.0015412800000000001
aF0.00206188
aF0.00213208
aF0.0024148
aF0.0018040400000000002
aF0.00138192
aF0.00146112
aF0.00123604
aF0.00177844
aF0.00132544
aF0.00130664
aF0.0019206400000000004
aF0.0023388799999999998
aF0.00161736
aF0.00206996
aF0.0027266400000000007
ass(g136
I24
tp299
(dp300
g13
(lp301
F0.8169814399999987
aF0.8062040399999881
aF0.8176167999999855
aF0.8259339999999942
aF0.8167285599999875
aF0.8261213999999967
aF0.8092640400000005
aF0.8054422400000135
aF0.8354200799999939
aF0.8112470800000027
aF0.8309333599999993
aF0.8310426799999799
aF0.8153210399999927
aF0.8461993199999717
aF0.8311267199999843
aF0.8262860400000043
aF0.8350813200000078
aF0.8270087600000112
aF0.8036785599999884
aF0.8331431599999901
aF0.8377091999999915
aF0.8185121599999977
aF0.8201798799999845
aF0.8355678399999823
aF0.824081959999992
aF0.8299291600000072
aF0.827621239999999
aF0.824739679999978
aF0.8224522800000045
aF0.8174955599999936
aF0.8095346799999884
aF0.8265474000000037
aF0.8278637999999688
aF0.8113045599999995
aF0.83250403999998
aF0.8245996000000022
aF0.8312192399999931
aF0.8202807999999906
aF0.8214465599999905
aF0.8284655599999697
aF0.8301489200000093
aF0.80932928
aF0.8200138799999828
aF0.8198346399999867
aF0.8201575199999841
aF0.8248231999999828
aF0.8166304399999944
aF0.8189889600000017
aF0.8180915199999904
aF0.7854974799999888
ass(g88
I16
tp302
(dp303
g13
(lp304
F0.0049414800000000016
aF0.00511224
aF0.005291160000000001
aF0.004404120000000002
aF0.0025974
aF0.0043548400000000004
aF0.004897520000000001
aF0.006137800000000001
aF0.003946480000000001
aF0.0036141200000000015
aF0.004303840000000001
aF0.00361496
aF0.006377440000000001
aF0.003897720000000001
aF0.004846400000000001
aF0.004388480000000001
aF0.00459844
aF0.004309520000000002
aF0.005232
aF0.00529132
aF0.006035999999999999
aF0.005604720000000001
aF0.0036894000000000002
aF0.0039212000000000006
aF0.005583119999999999
aF0.003757120000000001
aF0.004299919999999999
aF0.004815000000000001
aF0.004776679999999999
aF0.005137920000000001
aF0.005853400000000002
aF0.0033692
aF0.0066587600000000005
aF0.004487640000000001
aF0.004986839999999999
aF0.0037070000000000002
aF0.005397399999999998
aF0.00408048
aF0.0038734800000000003
aF0.0038121600000000006
aF0.0061132800000000004
aF0.0062948000000000014
aF0.005421119999999999
aF0.004268280000000001
aF0.0048822
aF0.00467676
aF0.005411160000000002
aF0.005533760000000001
aF0.004760319999999998
aF0.006979720000000002
ass(g52
I8
tp305
(dp306
g13
(lp307
F0.00101216
aF0.0018864
aF0.00174648
aF0.0009121600000000002
aF0.00114252
aF0.0014713600000000001
aF0.00113556
aF0.0016284800000000003
aF0.0016966799999999999
aF0.0008977200000000002
aF0.0007847600000000002
aF0.0012297599999999999
aF0.00112132
aF0.0015716000000000003
aF0.0012450800000000002
aF0.0008195600000000001
aF0.0010910000000000002
aF0.0015682000000000005
aF0.00208624
aF0.00089888
aF0.00228092
aF0.0013250800000000002
aF0.00104548
aF0.00187568
aF0.00114088
aF0.0016982000000000002
aF0.0007715600000000001
aF0.0007957200000000001
aF0.00253556
aF0.00104204
aF0.00112184
aF0.0025452
aF0.00061868
aF0.00139808
aF0.00113352
aF0.0012992400000000001
aF0.00229516
aF0.0010808
aF0.0018626000000000003
aF0.00094784
aF0.00119836
aF0.0012936800000000002
aF0.00142832
aF0.0017239200000000005
aF0.00142292
aF0.0018661600000000004
aF0.0014524400000000002
aF0.001068
aF0.0009496000000000002
aF0.0011564000000000001
ass(g1
(g5
S'\x9a\x99\x99\x99\x99\x99\xa9?'
p308
tp309
Rp310
I4
tp311
(dp312
g48
(lp313
F0.00097916
aF0.00031288
aF0.0006514400000000001
aF0.0006391599999999999
aF0.00058876
aF0.0007874800000000001
aF0.00122576
aF0.00093492
aF0.00013328000000000002
aF0.0005073600000000001
aF0.0007540400000000001
aF0.00050532
aF0.00066568
aF0.0007956000000000001
aF0.0006918
aF0.00031116
aF0.00048756
aF0.0013456800000000001
aF0.0009515200000000001
aF0.0012251599999999999
aF0.0002536
aF0.0008719999999999999
aF0.00047556000000000003
aF0.0008412000000000001
aF0.0009152800000000001
aF0.00073916
aF0.0002402
aF0.0010637600000000002
aF0.00116432
aF0.0007181599999999999
aF0.00108512
aF0.0008989600000000001
aF0.0003932
aF0.00078312
aF0.0009687599999999999
aF0.00127824
aF0.00128624
aF0.0005396
aF0.00059168
aF0.0008483999999999999
aF0.00031192000000000004
aF0.0013532799999999999
aF0.00097444
aF0.0008564400000000002
aF9.575999999999999e-05
aF0.0005512799999999999
aF0.0006686800000000001
aF0.0007438400000000001
aF0.00106404
aF0.0010622799999999999
ass(g88
I32
tp314
(dp315
g13
(lp316
F0.007921519999999998
aF0.012310920000000003
aF0.00831764
aF0.009987200000000002
aF0.008757000000000001
aF0.009878640000000003
aF0.008517280000000002
aF0.011228159999999997
aF0.008184199999999999
aF0.01044496
aF0.008321239999999999
aF0.008640120000000001
aF0.007307439999999998
aF0.011118799999999998
aF0.011080919999999998
aF0.011624999999999995
aF0.00918232
aF0.010525360000000003
aF0.00655972
aF0.009621639999999999
aF0.011140880000000002
aF0.011066480000000002
aF0.01203332
aF0.00991928
aF0.00894684
aF0.009373440000000002
aF0.00919168
aF0.007942279999999998
aF0.009367399999999998
aF0.01059864
aF0.009275880000000002
aF0.009687400000000002
aF0.009118679999999997
aF0.00859008
aF0.011171719999999998
aF0.011805959999999999
aF0.01034344
aF0.009152479999999998
aF0.01198004
aF0.013402360000000006
aF0.009427320000000003
aF0.00937676
aF0.012361280000000004
aF0.00862504
aF0.009395480000000003
aF0.009836320000000003
aF0.008696679999999997
aF0.00816172
aF0.008911440000000001
aF0.01143436
ass(g109
I16
tp317
(dp318
g13
(lp319
F0.057625160000000016
aF0.06363779999999998
aF0.06770116000000001
aF0.06175908000000003
aF0.06788632000000008
aF0.06587844000000005
aF0.0622953600000001
aF0.06106127999999997
aF0.07262092000000002
aF0.06979180000000001
aF0.05723152
aF0.06328704000000003
aF0.06343432
aF0.058151239999999986
aF0.05425616000000002
aF0.05845108000000006
aF0.05966939999999995
aF0.05448952000000003
aF0.05688728
aF0.051866480000000006
aF0.07705560000000007
aF0.061172520000000036
aF0.060346400000000085
aF0.06677675999999999
aF0.07957559999999994
aF0.054342200000000035
aF0.07705296000000007
aF0.059174639999999994
aF0.06036616000000004
aF0.06212807999999997
aF0.07012460000000009
aF0.062974
aF0.05718056000000005
aF0.08093879999999994
aF0.059608000000000015
aF0.06728740000000002
aF0.07336799999999999
aF0.06886572000000005
aF0.061677440000000014
aF0.056039919999999965
aF0.06236364000000006
aF0.0659014
aF0.0654343599999999
aF0.06377531999999995
aF0.06726563999999999
aF0.06351835999999998
aF0.06760820000000001
aF0.06418172000000007
aF0.06898839999999998
aF0.06619296000000002
ass(g36
I16
tp320
(dp321
g13
(lp322
F0.16557904
aF0.14847084000000005
aF0.16882324000000035
aF0.14461292000000023
aF0.18058124000000017
aF0.13830624000000022
aF0.1633124800000003
aF0.1758863600000002
aF0.15920015999999979
aF0.16883816000000015
aF0.15390019999999982
aF0.1513272800000001
aF0.14223172
aF0.1825502399999999
aF0.1451801600000001
aF0.17100456000000006
aF0.15113500000000007
aF0.1766834800000002
aF0.14186243999999984
aF0.17551684000000023
aF0.17884028000000016
aF0.13842548000000013
aF0.1462126800000004
aF0.15836992000000064
aF0.1699222399999999
aF0.16784395999999996
aF0.16379495999999996
aF0.16577779999999998
aF0.14039468000000005
aF0.14674171999999958
aF0.1795317999999996
aF0.17536344000000015
aF0.15287964000000015
aF0.16417471999999983
aF0.18321664000000026
aF0.1785683600000002
aF0.14917708000000007
aF0.1631609600000002
aF0.15443448
aF0.1626689600000002
aF0.14958039999999986
aF0.1395858800000001
aF0.15001372000000002
aF0.16960512000000008
aF0.15215883999999977
aF0.15599955999999982
aF0.1464052
aF0.17216932000000004
aF0.15089552000000006
aF0.17171020000000004
ass(g148
I8
tp323
(dp324
g13
(lp325
F0.1621870000000001
aF0.1775634800000001
aF0.14962319999999973
aF0.16510311999999985
aF0.15885123999999975
aF0.14614112
aF0.1553882400000002
aF0.12893032
aF0.14604856000000008
aF0.16381180000000012
aF0.15688556000000003
aF0.1653461599999995
aF0.14724392000000028
aF0.15525976000000005
aF0.1777410399999997
aF0.16530604000000007
aF0.15219159999999987
aF0.15748511999999976
aF0.14528263999999988
aF0.1357906400000001
aF0.1594781199999999
aF0.15591352
aF0.13690811999999988
aF0.13732388000000004
aF0.18435560000000006
aF0.16340255999999986
aF0.15628536000000007
aF0.16253684000000013
aF0.1584329599999998
aF0.1648624000000002
aF0.14849267999999993
aF0.15107332000000007
aF0.15974591999999974
aF0.1840960399999999
aF0.15154819999999988
aF0.16262987999999998
aF0.19320227999999978
aF0.1460866399999998
aF0.15523048000000023
aF0.14157456000000032
aF0.16862063999999993
aF0.14724648000000004
aF0.17247679999999999
aF0.1539177599999999
aF0.1645486399999997
aF0.14109952000000026
aF0.1455248
aF0.16878467999999996
aF0.15466699999999992
aF0.1425404
ass(g1
(g5
S'gfffff\xee?'
p326
tp327
Rp328
I6
tp329
(dp330
g32
(lp331
F0.23403500000000016
aF0.21293983999999988
aF0.24511728000000027
aF0.23594456000000016
aF0.19842919999999994
aF0.20240079999999974
aF0.22781563999999974
aF0.22724436000000017
aF0.22637395999999962
aF0.23034720000000025
aF0.1991571599999998
aF0.23225867999999972
aF0.21470472000000032
aF0.21734444000000014
aF0.22023672
aF0.2089048400000001
aF0.2299136799999998
aF0.2258856000000003
aF0.23628375999999954
aF0.21701659999999973
aF0.23986755999999979
aF0.22630911999999978
aF0.2251827200000002
aF0.25789248000000015
aF0.23079679999999955
aF0.22057687999999995
aF0.1995264800000002
aF0.22763815999999992
aF0.23389575999999965
aF0.23025492000000017
aF0.24152112000000006
aF0.25115672
aF0.2414459199999998
aF0.23837092000000099
aF0.23574448000000003
aF0.2329500000000006
aF0.24675780000000028
aF0.22363424000000004
aF0.23756956000000023
aF0.23074991999999994
aF0.23797552
aF0.2469144799999998
aF0.23501995999999975
aF0.25104804
aF0.2616877599999996
aF0.22239787999999958
aF0.24817427999999958
aF0.24516039999999964
aF0.2290922000000001
aF0.23739823999999984
ass(g1
(g5
S'\x00\x00\x00\x00\x00\x00\xe0?'
p332
tp333
Rp334
I4
tp335
(dp336
g48
(lp337
F0.003670439999999999
aF0.0038002
aF0.0034866799999999994
aF0.0022348000000000003
aF0.0014872400000000003
aF0.002982960000000001
aF0.0031632400000000008
aF0.00317928
aF0.00250932
aF0.0020318000000000003
aF0.0024350799999999996
aF0.0034198400000000004
aF0.0034611600000000005
aF0.0033432000000000006
aF0.00255692
aF0.00337936
aF0.00319248
aF0.00247992
aF0.00316924
aF0.004265999999999999
aF0.00412932
aF0.00468012
aF0.0023849600000000006
aF0.0031917599999999996
aF0.003566720000000001
aF0.00246816
aF0.0025008
aF0.00279248
aF0.0045836
aF0.0034381199999999994
aF0.004055199999999999
aF0.0023932
aF0.0034557999999999998
aF0.0026787200000000003
aF0.0030012000000000003
aF0.0022426
aF0.00282008
aF0.00183916
aF0.0029278000000000004
aF0.0029875599999999993
aF0.00318568
aF0.00302456
aF0.0026820800000000003
aF0.00309972
aF0.0042239999999999995
aF0.003274159999999999
aF0.0027632800000000003
aF0.0033930400000000004
aF0.00284948
aF0.0035102000000000006
ass(g184
I32
tp338
(dp339
g13
(lp340
F0.03843160000000003
aF0.027517280000000005
aF0.03322980000000003
aF0.026571800000000003
aF0.031762200000000004
aF0.02544048000000001
aF0.028739920000000002
aF0.029616360000000005
aF0.02723687999999998
aF0.036057240000000004
aF0.03406792000000002
aF0.03039579999999999
aF0.02257132000000002
aF0.03497236
aF0.02886128000000002
aF0.02764828
aF0.029239000000000008
aF0.03275303999999998
aF0.030245880000000003
aF0.02317608
aF0.028117800000000002
aF0.025789799999999995
aF0.03109500000000002
aF0.027458399999999997
aF0.023469320000000002
aF0.030491320000000002
aF0.03868731999999999
aF0.02953659999999998
aF0.03051511999999999
aF0.026646600000000003
aF0.027276919999999996
aF0.026515640000000004
aF0.02145792000000001
aF0.02688496000000001
aF0.03044532000000001
aF0.023783999999999996
aF0.027375679999999996
aF0.03246884000000001
aF0.029700319999999995
aF0.026161160000000017
aF0.02524212000000001
aF0.03222156
aF0.03211428000000001
aF0.024871720000000003
aF0.0208412
aF0.030429320000000003
aF0.02786424000000001
aF0.02453204
aF0.027301040000000013
aF0.030653240000000023
ass(g1
(g5
S'\x9a\x99\x99\x99\x99\x99\xe1?'
p341
tp342
Rp343
I4
tp344
(dp345
g48
(lp346
F0.00735852
aF0.0052577200000000004
aF0.006407360000000001
aF0.004109319999999999
aF0.005611800000000001
aF0.0026438000000000004
aF0.00425368
aF0.005754040000000001
aF0.00421088
aF0.0059223600000000015
aF0.00427864
aF0.005039799999999999
aF0.006175039999999999
aF0.004974799999999999
aF0.006618039999999999
aF0.004809519999999999
aF0.005442880000000002
aF0.005783920000000001
aF0.008578999999999998
aF0.0057042
aF0.004815640000000001
aF0.004219200000000001
aF0.006251559999999998
aF0.006688799999999999
aF0.004948879999999999
aF0.005803840000000001
aF0.00580208
aF0.0070982400000000005
aF0.006647680000000001
aF0.005329279999999999
aF0.005684720000000001
aF0.005178640000000001
aF0.0041879199999999995
aF0.006770120000000001
aF0.006659200000000001
aF0.005129440000000001
aF0.005879599999999998
aF0.005345840000000001
aF0.00318536
aF0.005785360000000001
aF0.00383868
aF0.006807280000000002
aF0.004881479999999998
aF0.007193720000000001
aF0.004738240000000001
aF0.00460072
aF0.00488116
aF0.00585388
aF0.004771240000000001
aF0.00482252
ass(g199
I16
tp347
(dp348
g13
(lp349
F0.45942983999999976
aF0.46595772000000135
aF0.4406768799999988
aF0.47682863999999986
aF0.467069800000002
aF0.45872151999999994
aF0.4753058400000054
aF0.46107792000000014
aF0.4442234000000016
aF0.4748494000000009
aF0.46367364000000233
aF0.4667054000000015
aF0.45759855999999977
aF0.49550383999999936
aF0.4599550400000003
aF0.46695544000000005
aF0.44295092000000036
aF0.4642396000000024
aF0.47865275999999946
aF0.4855273199999997
aF0.45199976000000164
aF0.4513562
aF0.4842021200000021
aF0.4800928399999989
aF0.4711635200000004
aF0.4876369199999996
aF0.4790140800000017
aF0.44335100000000083
aF0.4757923999999997
aF0.4486944399999999
aF0.4290629200000012
aF0.4410357200000012
aF0.45310496000000167
aF0.456798200000001
aF0.4680573200000011
aF0.474267640000001
aF0.45721675999999906
aF0.4689767600000007
aF0.4462058000000017
aF0.45638787999999997
aF0.45363356000000016
aF0.4854142000000018
aF0.45803028000000184
aF0.49842692000000155
aF0.4704344799999991
aF0.46783384000000106
aF0.479603879999999
aF0.4644952800000012
aF0.4622941200000019
aF0.4935465600000004
ass(g1
(g5
S'\x00\x00\x00\x00\x00\x00\xe8?'
p350
tp351
Rp352
I4
tp353
(dp354
g48
(lp355
F0.03967740000000001
aF0.03907487999999998
aF0.04655236000000002
aF0.043161759999999987
aF0.03187780000000002
aF0.04521000000000002
aF0.03362368000000001
aF0.03513631999999999
aF0.03486632
aF0.03310292
aF0.03480563999999999
aF0.05379324000000003
aF0.03796131999999996
aF0.04332052000000002
aF0.04049692000000001
aF0.03906599999999997
aF0.05034527999999995
aF0.044638439999999995
aF0.04028591999999997
aF0.042145240000000035
aF0.04781291999999997
aF0.042367359999999986
aF0.04218140000000001
aF0.034990200000000006
aF0.032968800000000006
aF0.03265012000000001
aF0.03741968000000001
aF0.03931684000000002
aF0.03821491999999999
aF0.03841071999999999
aF0.04650580000000001
aF0.0385964
aF0.034987039999999976
aF0.040918400000000014
aF0.04054775999999997
aF0.03960499999999999
aF0.029731840000000006
aF0.03825703999999998
aF0.033221400000000005
aF0.03451944000000001
aF0.031752000000000016
aF0.040131639999999996
aF0.03346868
aF0.037455839999999976
aF0.044350399999999984
aF0.04348800000000001
aF0.03784332000000002
aF0.04505023999999998
aF0.03671092000000001
aF0.03830744000000001
ass(g1
(g5
S'\x00\x00\x00\x00\x00\x00\xd0?'
p356
tp357
Rp358
I6
tp359
(dp360
g32
(lp361
F0.00140432
aF0.00098416
aF0.0010541200000000002
aF0.0009591200000000002
aF0.0014713999999999999
aF0.0012592
aF0.00101336
aF0.00028312
aF0.00056404
aF0.00132584
aF0.00126224
aF0.0010696800000000002
aF0.00119304
aF0.00139252
aF0.00117544
aF0.0014599199999999998
aF0.0010798000000000001
aF0.0009628
aF0.0013221600000000002
aF0.00101008
aF0.0012584800000000004
aF0.0013895200000000002
aF0.00097932
aF0.001583
aF0.00054656
aF0.00124944
aF0.0008756800000000001
aF0.00109604
aF0.00115952
aF0.0006504799999999999
aF0.0011944400000000002
aF0.00060512
aF0.0008439200000000001
aF0.00129392
aF0.0008318800000000001
aF0.0011909199999999998
aF0.0009016400000000001
aF0.00097592
aF0.0010019999999999999
aF0.0012743600000000002
aF0.0006680400000000001
aF0.0011000800000000002
aF0.0014488
aF0.0006718800000000001
aF0.00097136
aF0.0011317600000000003
aF0.0007494800000000001
aF0.00106644
aF0.0008339200000000001
aF0.0010634400000000001
ass(g1
(g5
S'\xcd\xcc\xcc\xcc\xcc\xcc\xe4?'
p362
tp363
Rp364
I6
tp365
(dp366
g32
(lp367
F0.028922160000000016
aF0.031096440000000003
aF0.02623879999999999
aF0.030547679999999987
aF0.02537364
aF0.024083720000000013
aF0.021880999999999994
aF0.026510999999999993
aF0.027219240000000013
aF0.03188624000000001
aF0.028145760000000002
aF0.03162816000000001
aF0.028432919999999993
aF0.02635795999999999
aF0.025968040000000015
aF0.02609843999999998
aF0.029302520000000002
aF0.026909320000000007
aF0.02570516000000001
aF0.027055320000000018
aF0.03237544000000001
aF0.030699719999999993
aF0.026849000000000005
aF0.027179880000000003
aF0.025582359999999995
aF0.02610087999999999
aF0.02951063999999998
aF0.02212244
aF0.03027640000000001
aF0.024916640000000007
aF0.03213196000000003
aF0.02813735999999999
aF0.02508407999999999
aF0.02864504000000001
aF0.027510159999999992
aF0.026891439999999985
aF0.025838520000000004
aF0.0282396
aF0.024108599999999997
aF0.025406119999999973
aF0.03114940000000001
aF0.02603924
aF0.024984400000000004
aF0.02287120000000001
aF0.019074320000000002
aF0.030117160000000014
aF0.028493399999999988
aF0.02608392
aF0.02012404000000001
aF0.026736399999999976
ass(g82
I32
tp368
(dp369
g13
(lp370
F0.0015522400000000003
aF0.0007268000000000001
aF0.00164796
aF0.00255088
aF0.0013428400000000003
aF0.0005616400000000001
aF0.0011333200000000002
aF0.00205016
aF0.00134016
aF0.00103744
aF0.0009168000000000001
aF0.0015597599999999999
aF0.0015891199999999999
aF0.0016566800000000002
aF0.0011711199999999999
aF0.00046060000000000003
aF0.00144348
aF0.0016898400000000002
aF0.00133824
aF0.0014686000000000002
aF0.0007816000000000001
aF0.00122776
aF0.00055864
aF0.00136868
aF0.00112396
aF0.00138172
aF0.00121656
aF0.0021168800000000002
aF0.0010264
aF0.0009554400000000001
aF0.0009964
aF0.00065216
aF0.00103888
aF0.00120404
aF0.0016732400000000003
aF0.00131392
aF0.00109856
aF0.00041007999999999995
aF0.00093256
aF0.0012364000000000001
aF0.0007228000000000001
aF0.0014452800000000002
aF0.0008095600000000002
aF0.0010776800000000001
aF0.00128728
aF0.00129692
aF0.001624
aF0.00190788
aF0.0010523600000000002
aF0.00100616
ass(g1
(g5
S'\x9a\x99\x99\x99\x99\x99\xc9?'
p371
tp372
Rp373
I6
tp374
(dp375
g32
(lp376
F0.002255
aF0.00123888
aF0.0011624399999999998
aF0.00079336
aF0.00077984
aF0.00088984
aF0.00108868
aF0.0006952000000000001
aF0.0011026
aF0.0016504400000000004
aF0.0010408000000000001
aF0.0011600400000000002
aF0.0006624399999999999
aF0.0012963200000000001
aF0.0007758400000000001
aF0.0009165200000000001
aF0.0016134400000000003
aF0.0014473200000000002
aF0.0015787600000000002
aF0.0013424399999999999
aF0.0009977200000000001
aF0.0009992
aF0.00107852
aF0.0008409200000000001
aF0.0004572
aF0.0009219200000000001
aF0.0010326
aF0.0003026
aF0.00056452
aF0.0011610799999999999
aF0.0008818
aF0.0006986400000000002
aF0.00088656
aF0.0008846400000000001
aF0.00110192
aF0.00065552
aF0.00092964
aF0.00038908000000000004
aF0.0007699600000000001
aF0.0007744399999999999
aF0.00038827999999999996
aF0.00101216
aF0.0015698
aF0.00046792
aF0.0006409600000000001
aF0.00097348
aF0.00104172
aF0.00133216
aF0.00071612
aF0.00123156
ass(g23
I32
tp377
(dp378
g13
(lp379
F0.3480756399999998
aF0.35471087999999995
aF0.34421720000000056
aF0.3343274400000014
aF0.3347343599999994
aF0.35057531999999986
aF0.3475415599999999
aF0.36711468000000136
aF0.36791808000000026
aF0.3415512000000004
aF0.3655134400000007
aF0.3538296000000005
aF0.3535048799999998
aF0.3308479200000011
aF0.34600816000000156
aF0.38527532000000014
aF0.3316172400000007
aF0.35562240000000156
aF0.3316705200000005
aF0.34542408000000036
aF0.3746864400000012
aF0.34342456000000027
aF0.3536685600000015
aF0.36280928000000146
aF0.3536022800000001
aF0.3566827600000009
aF0.3866876800000007
aF0.32382072000000006
aF0.3439805999999994
aF0.3493354400000009
aF0.3212516000000002
aF0.3661438399999994
aF0.3551739200000007
aF0.34786419999999957
aF0.33147332000000074
aF0.35016468000000095
aF0.3278903600000009
aF0.3592425199999997
aF0.3220140400000009
aF0.34735000000000116
aF0.35138236000000006
aF0.3580012000000008
aF0.3337346000000005
aF0.35027128000000163
aF0.3463101600000003
aF0.36894840000000184
aF0.33299076000000105
aF0.3600970400000006
aF0.3793383599999991
aF0.3472180800000005
ass(g1
(g5
S'\xcd\xcc\xcc\xcc\xcc\xcc\xec?'
p380
tp381
Rp382
I4
tp383
(dp384
g48
(lp385
F0.11231792000000003
aF0.11038239999999999
aF0.11053467999999994
aF0.10779703999999997
aF0.11567244000000003
aF0.12806628000000012
aF0.11027171999999995
aF0.11956971999999999
aF0.13513492
aF0.12839988
aF0.11665104000000004
aF0.13179072000000006
aF0.12092055999999995
aF0.12504432000000004
aF0.11929476
aF0.11349935999999997
aF0.11128951999999992
aF0.11608004000000005
aF0.09657431999999992
aF0.12164232000000003
aF0.11830256000000004
aF0.11811468000000003
aF0.1142296799999999
aF0.1337411200000002
aF0.13166511999999997
aF0.12773647999999982
aF0.10759924000000001
aF0.11442719999999995
aF0.11677256000000003
aF0.09904424000000003
aF0.1273457999999998
aF0.11186487999999992
aF0.10782599999999995
aF0.11412956000000003
aF0.12215959999999992
aF0.11420471999999993
aF0.11225808000000005
aF0.12779072000000016
aF0.13327419999999995
aF0.11806776000000005
aF0.12378039999999997
aF0.12847623999999977
aF0.11673876000000001
aF0.13434595999999988
aF0.10179980000000004
aF0.12105892000000018
aF0.13435240000000004
aF0.12714448000000017
aF0.11283735999999996
aF0.12583387999999998
ass(g1
(g5
S'\x00\x00\x00\x00\x00\x00\xe8?'
p386
tp387
Rp388
I6
tp389
(dp390
g32
(lp391
F0.06462660000000003
aF0.07091744000000007
aF0.08006515999999998
aF0.06781044000000004
aF0.06853307999999997
aF0.06744067999999998
aF0.0819748
aF0.07638968000000006
aF0.06761403999999996
aF0.06460952000000006
aF0.058169559999999995
aF0.06547543999999998
aF0.06551292000000009
aF0.06752479999999998
aF0.06288811999999995
aF0.06816112000000006
aF0.06392368000000002
aF0.055050240000000035
aF0.06721447999999997
aF0.07057615999999997
aF0.0778902399999999
aF0.06370628
aF0.07461616000000007
aF0.06515287999999995
aF0.07374435999999998
aF0.07223455999999996
aF0.06838968
aF0.06964663999999994
aF0.06436384000000002
aF0.06976019999999994
aF0.07425815999999999
aF0.0666926
aF0.07481283999999994
aF0.06476056
aF0.057554640000000094
aF0.07496959999999996
aF0.07284619999999997
aF0.07944811999999998
aF0.0800652
aF0.06753211999999999
aF0.05846832000000004
aF0.06281575999999998
aF0.06635987999999997
aF0.06788232000000008
aF0.07227416000000002
aF0.05920912000000005
aF0.07197811999999998
aF0.06820643999999998
aF0.07294892
aF0.06494544000000001
ass(g10
I16
tp392
(dp393
g13
(lp394
F0.28844623999999996
aF0.2960838400000003
aF0.29752616000000015
aF0.29165891999999993
aF0.329214719999999
aF0.2951068799999994
aF0.2882777599999999
aF0.30509296000000014
aF0.2751202799999997
aF0.31176832000000004
aF0.29327675999999964
aF0.29137100000000066
aF0.28472172
aF0.31043180000000026
aF0.3083482799999999
aF0.29364020000000024
aF0.29275767999999985
aF0.3015907200000011
aF0.2865460800000002
aF0.31342060000000105
aF0.30051676000000055
aF0.33649608000000053
aF0.2925339200000004
aF0.3306596000000011
aF0.30581752000000084
aF0.3106162800000013
aF0.2917614000000002
aF0.29640251999999995
aF0.3168463600000018
aF0.31153075999999996
aF0.291634159999999
aF0.3212095200000006
aF0.31494884
aF0.3135381600000002
aF0.2814560400000004
aF0.29056552
aF0.3038916400000005
aF0.30949272000000017
aF0.3118717600000011
aF0.29738152000000057
aF0.30552616000000066
aF0.3129025200000006
aF0.2816875999999995
aF0.2806420400000004
aF0.33227944000000037
aF0.29612568000000006
aF0.3239389200000007
aF0.35921444000000025
aF0.2882041199999995
aF0.298899480000001
ass(g199
I24
tp395
(dp396
g13
(lp397
F0.7002399600000019
aF0.7239794799999962
aF0.6987403599999922
aF0.6906431999999959
aF0.6911543600000083
aF0.7189332400000096
aF0.6955848400000031
aF0.6891831199999986
aF0.721010200000006
aF0.7207929999999997
aF0.6991650000000005
aF0.6808284799999992
aF0.6961767999999972
aF0.7234245599999981
aF0.697223359999998
aF0.7190725200000042
aF0.7160022399999932
aF0.6995685599999961
aF0.7174854399999978
aF0.7209493599999913
aF0.694067199999995
aF0.7041129999999913
aF0.6975911599999952
aF0.7007952400000079
aF0.7106882000000024
aF0.7158186400000085
aF0.6998078399999976
aF0.6950925200000149
aF0.6735040399999996
aF0.7080232800000001
aF0.7324751999999888
aF0.6893731600000025
aF0.7185687600000005
aF0.6905249200000038
aF0.7096361199999991
aF0.6786759999999944
aF0.69883387999999
aF0.6960671200000065
aF0.7195542400000019
aF0.6927762800000015
aF0.6880075200000098
aF0.7064643200000064
aF0.71510744
aF0.7246019199999908
aF0.710847239999999
aF0.6918050800000036
aF0.6609161599999916
aF0.6991833599999984
aF0.7209499199999972
aF0.7051063200000022
ass(g229
I8
tp398
(dp399
g13
(lp400
F0.0015825999999999998
aF0.0007094800000000001
aF0.0014861200000000003
aF0.0021884000000000005
aF0.00150352
aF0.0021012
aF0.00064372
aF0.00180288
aF0.00150092
aF0.0008922800000000001
aF0.00088444
aF0.0010099599999999999
aF0.0012805199999999998
aF0.00034548
aF0.00107172
aF0.00121576
aF0.0010034
aF0.0018704400000000003
aF0.0009756000000000001
aF0.0013616000000000001
aF0.00099864
aF0.0017887600000000001
aF0.0013492800000000002
aF0.00143216
aF0.0010036
aF0.00150152
aF0.0015347199999999998
aF0.00105784
aF0.00080808
aF0.00132888
aF0.00062864
aF0.00116156
aF0.0008247999999999999
aF0.00113284
aF0.0013660800000000002
aF0.0011928400000000001
aF0.0017139200000000003
aF0.0014297200000000002
aF0.00144948
aF0.0009234800000000002
aF0.0013869199999999998
aF0.0011940400000000002
aF0.00113824
aF0.00142372
aF0.0013824800000000004
aF0.00200508
aF0.00121064
aF0.0015752400000000003
aF0.0009767600000000001
aF0.0008847200000000001
ass(g64
I8
tp401
(dp402
g13
(lp403
F0.02708556000000001
aF0.024164920000000006
aF0.031490239999999996
aF0.025069760000000028
aF0.03119659999999999
aF0.030810399999999998
aF0.03244127999999998
aF0.029462600000000002
aF0.025420360000000003
aF0.030388240000000004
aF0.03543172000000003
aF0.03059312000000001
aF0.0323052
aF0.029990520000000007
aF0.028378399999999998
aF0.024966199999999994
aF0.03568460000000002
aF0.02447684
aF0.03641651999999999
aF0.031324999999999985
aF0.029727999999999994
aF0.030982240000000008
aF0.026621840000000015
aF0.03195012000000001
aF0.027483159999999996
aF0.025150520000000003
aF0.028601279999999993
aF0.02977920000000001
aF0.023481799999999994
aF0.02722804000000001
aF0.03149056
aF0.03462784000000001
aF0.026152199999999994
aF0.02683132000000001
aF0.02483628
aF0.028108360000000002
aF0.02754871999999998
aF0.025872840000000008
aF0.03879899999999999
aF0.031191760000000006
aF0.02334815999999999
aF0.03211471999999999
aF0.025969079999999988
aF0.02713936
aF0.03132043999999998
aF0.025910679999999985
aF0.028520559999999997
aF0.03159560000000001
aF0.03393144000000003
aF0.036448639999999984
ass(g17
I8
tp404
(dp405
g13
(lp406
F0.00104592
aF0.00065764
aF0.00043716
aF0.0012230000000000001
aF0.00161252
aF0.00146384
aF0.00062488
aF0.0010663200000000002
aF0.0011856400000000002
aF0.0012040000000000002
aF0.00072208
aF0.0006573600000000001
aF0.00043180000000000003
aF0.00090412
aF0.00126732
aF0.00040456000000000004
aF0.0012228400000000002
aF0.001002
aF0.00104864
aF0.000821
aF0.0010947600000000002
aF0.0011304400000000001
aF0.00113708
aF0.0007952
aF0.0013591200000000001
aF0.00152872
aF0.0014385200000000002
aF0.00077204
aF0.0009372000000000001
aF0.00093744
aF0.0015319600000000002
aF0.00143684
aF0.0007660400000000001
aF0.00116224
aF0.0020509599999999997
aF0.00114956
aF0.0010628400000000002
aF0.0013447600000000002
aF0.00040568
aF0.00104376
aF0.0010819199999999999
aF0.00147492
aF0.00068984
aF0.0015395199999999997
aF0.0015494
aF0.00051012
aF0.0009631599999999999
aF0.00069152
aF0.0012171600000000001
aF0.0011982000000000002
ass(g23
I24
tp407
(dp408
g13
(lp409
F0.4099977200000005
aF0.42721459999999967
aF0.42383480000000084
aF0.43573288000000193
aF0.4542691599999999
aF0.44658303999999927
aF0.42170147999999913
aF0.4571223199999995
aF0.4306973600000019
aF0.4031766400000004
aF0.4157983999999987
aF0.4281587999999997
aF0.4380595600000002
aF0.37399524000000056
aF0.4418769600000009
aF0.4403242400000003
aF0.4055401599999998
aF0.48628208000000084
aF0.3903072000000016
aF0.43957360000000023
aF0.4248740000000006
aF0.41824980000000017
aF0.42784308000000243
aF0.4179309600000003
aF0.42404087999999923
aF0.4229240400000028
aF0.43312315999999995
aF0.43959804000000036
aF0.40768872000000067
aF0.41633936000000105
aF0.42193832000000236
aF0.4381252000000017
aF0.44354296000000115
aF0.41639215999999946
aF0.4471100000000015
aF0.4392364000000027
aF0.4166053200000014
aF0.43544412000000254
aF0.46559844000000067
aF0.4436611600000004
aF0.4127791600000003
aF0.4134691999999983
aF0.43875860000000044
aF0.43089268
aF0.42383340000000275
aF0.44517228000000175
aF0.4497563200000001
aF0.43495703999999924
aF0.4584981999999996
aF0.44362972000000095
ass(g52
I24
tp410
(dp411
g13
(lp412
F0.006019559999999999
aF0.00483456
aF0.005875719999999999
aF0.006294120000000002
aF0.007951480000000002
aF0.006977440000000002
aF0.007295000000000002
aF0.00586052
aF0.006999640000000001
aF0.00497112
aF0.0051535999999999995
aF0.007178960000000001
aF0.004603480000000001
aF0.006108240000000001
aF0.0054373200000000016
aF0.0043104
aF0.00583444
aF0.005409760000000001
aF0.006491040000000002
aF0.005757120000000001
aF0.006979639999999999
aF0.006761680000000001
aF0.0038180400000000004
aF0.005121479999999999
aF0.007014400000000002
aF0.004936080000000001
aF0.006769720000000002
aF0.004435960000000002
aF0.00575224
aF0.004346200000000001
aF0.0074142800000000005
aF0.004627480000000001
aF0.005055960000000001
aF0.005707399999999999
aF0.005603920000000002
aF0.003426560000000001
aF0.005083759999999999
aF0.005136360000000001
aF0.00613044
aF0.00777128
aF0.005346399999999999
aF0.004220959999999999
aF0.004876040000000001
aF0.006897520000000002
aF0.008126400000000002
aF0.007905400000000002
aF0.00696424
aF0.006166600000000001
aF0.004717
aF0.006452039999999998
ass(g130
I16
tp413
(dp414
g13
(lp415
F0.02732344000000002
aF0.023513000000000003
aF0.02275208
aF0.022271040000000006
aF0.018803600000000007
aF0.024222599999999997
aF0.019417320000000002
aF0.019355520000000008
aF0.029067960000000014
aF0.02290859999999999
aF0.024117280000000005
aF0.017885919999999993
aF0.028795120000000007
aF0.024512079999999995
aF0.02635140000000001
aF0.01991844
aF0.016427240000000003
aF0.023491240000000007
aF0.020328640000000005
aF0.024231799999999994
aF0.022842640000000008
aF0.0244272
aF0.019209439999999998
aF0.024419919999999998
aF0.021749599999999997
aF0.01901124000000001
aF0.023390800000000007
aF0.020511679999999997
aF0.022973600000000007
aF0.0190064
aF0.025094720000000004
aF0.02051040000000001
aF0.01836128
aF0.01899136
aF0.017494440000000003
aF0.022353879999999986
aF0.02956603999999999
aF0.025337719999999984
aF0.02286563999999999
aF0.027158999999999996
aF0.018969359999999994
aF0.025165200000000013
aF0.021488680000000013
aF0.022737519999999997
aF0.024441119999999993
aF0.024959040000000002
aF0.019592480000000006
aF0.026322519999999995
aF0.023566640000000003
aF0.026686440000000002
ass(g1
(g5
S'433333\xc3?'
p416
tp417
Rp418
I6
tp419
(dp420
g32
(lp421
F0.00160628
aF0.0007461600000000002
aF0.00110176
aF0.0007562800000000001
aF0.0009049200000000001
aF0.00060704
aF0.00047084000000000004
aF0.00083708
aF0.0006906000000000001
aF0.000661
aF0.0014398800000000004
aF0.0010091199999999999
aF0.0007006400000000001
aF0.0007243600000000001
aF0.0007913600000000001
aF0.0013416
aF0.0008244400000000001
aF0.0012604
aF0.0012040800000000002
aF0.00106684
aF0.0008338
aF0.0007865999999999999
aF0.0010758400000000002
aF0.00143876
aF0.00065352
aF0.0016003600000000003
aF0.0006240400000000001
aF0.0007321600000000001
aF0.00058216
aF0.0008045600000000001
aF0.00131804
aF0.0008136800000000001
aF0.0008284400000000001
aF0.00126092
aF0.0014020800000000004
aF0.00067984
aF0.0012006
aF0.00048144
aF0.0007698400000000002
aF0.0010968400000000002
aF0.00109512
aF0.00093828
aF0.00118456
aF0.00123388
aF0.0009209600000000001
aF0.0008719200000000002
aF0.00054476
aF0.00157092
aF0.00101304
aF0.0004382
ass(g178
I32
tp422
(dp423
g13
(lp424
F0.014470720000000001
aF0.016106599999999995
aF0.016380040000000002
aF0.021400719999999988
aF0.018807519999999998
aF0.014332479999999993
aF0.01466544
aF0.01786648
aF0.019287320000000007
aF0.01860096000000001
aF0.01701592
aF0.018653920000000004
aF0.01600468
aF0.01362872
aF0.019515599999999994
aF0.015347399999999992
aF0.016083919999999995
aF0.017847039999999995
aF0.019532800000000003
aF0.0190192
aF0.014634399999999997
aF0.01803564
aF0.016782520000000006
aF0.0145114
aF0.014024240000000006
aF0.018129720000000002
aF0.015229360000000004
aF0.02248764
aF0.017720879999999998
aF0.01597332
aF0.015614240000000003
aF0.01586752
aF0.015788280000000005
aF0.020840279999999996
aF0.017917960000000004
aF0.013883839999999995
aF0.01552312
aF0.014541839999999999
aF0.01621388
aF0.01675724
aF0.012949080000000002
aF0.01552672
aF0.01799120000000001
aF0.02100780000000001
aF0.01668596
aF0.01744812
aF0.01148716
aF0.013829839999999996
aF0.01920764
aF0.01911620000000001
ass(g52
I16
tp425
(dp426
g13
(lp427
F0.0038875600000000004
aF0.0033191599999999994
aF0.0033680800000000007
aF0.0027720800000000006
aF0.002649000000000001
aF0.00361836
aF0.0031257999999999998
aF0.0024744000000000007
aF0.0018357599999999994
aF0.004016879999999999
aF0.00317292
aF0.003149600000000001
aF0.003136040000000001
aF0.0028990799999999996
aF0.00324328
aF0.004806280000000002
aF0.002481080000000001
aF0.0038485600000000013
aF0.0036763600000000005
aF0.0034754399999999998
aF0.004295960000000001
aF0.0030873999999999997
aF0.00326348
aF0.00294832
aF0.00171564
aF0.0031716400000000003
aF0.0037332800000000003
aF0.0030636000000000014
aF0.00231044
aF0.0028770000000000007
aF0.0036328800000000002
aF0.0022406400000000003
aF0.0022943599999999996
aF0.003745800000000001
aF0.00182708
aF0.0032929599999999997
aF0.00271808
aF0.0025623600000000005
aF0.0018238
aF0.0036359600000000006
aF0.00257056
aF0.003641719999999999
aF0.00398868
aF0.0025350400000000006
aF0.0023664800000000002
aF0.00233996
aF0.0026240000000000005
aF0.00376984
aF0.0025087600000000005
aF0.0027656
ass(g1
(g5
S'\x9a\x99\x99\x99\x99\x99\xc9?'
p428
tp429
Rp430
I4
tp431
(dp432
g48
(lp433
F0.00089448
aF0.00074988
aF0.000487
aF0.00045299999999999995
aF0.0006527600000000001
aF0.0008575200000000001
aF0.00068468
aF0.00040988000000000005
aF0.00110892
aF0.0009564
aF0.00067444
aF0.00090916
aF0.00014716000000000002
aF0.0007096400000000001
aF0.0007852
aF0.00178788
aF0.0009676800000000001
aF0.0006488
aF0.00039828
aF0.0006137600000000001
aF0.00084784
aF0.0006005600000000001
aF0.0009350800000000002
aF0.00093008
aF0.00110444
aF0.00037508
aF0.00065456
aF0.0007535600000000001
aF0.0005234000000000001
aF0.00035588000000000004
aF0.0005794000000000001
aF0.0010140000000000001
aF0.00075756
aF0.00157116
aF0.00063872
aF0.00088988
aF0.00041776
aF0.00083504
aF0.00081888
aF0.00069048
aF0.00059
aF0.0004917999999999999
aF0.0009712400000000002
aF0.0010149999999999998
aF0.00045508000000000007
aF0.00114604
aF0.00055804
aF0.00021292000000000004
aF0.000469
aF0.00084252
ass(g1
(g5
S'\xcd\xcc\xcc\xcc\xcc\xcc\xec?'
p434
tp435
Rp436
I24
tp437
(dp438
g13
(lp439
F0.7622402399999876
aF0.7649612399999987
aF0.7889309199999966
aF0.7537594800000019
aF0.7886460799999845
aF0.771096799999994
aF0.7766209599999992
aF0.7753903599999991
aF0.7386131599999964
aF0.7887556400000018
aF0.7497039599999934
aF0.786376079999993
aF0.7767325199999984
aF0.7422285199999965
aF0.7912837999999824
aF0.7547993200000025
aF0.7628803200000077
aF0.7475682799999989
aF0.7875689999999836
aF0.795748879999981
aF0.7786264000000067
aF0.7651164399999965
aF0.7599521199999911
aF0.7679278399999833
aF0.7794496000000047
aF0.7654569599999779
aF0.7564291999999893
aF0.7774025600000077
aF0.7769186799999843
aF0.7517751999999878
aF0.7859365599999989
aF0.7578414399999901
aF0.7510847999999993
aF0.7648519600000016
aF0.7892131199999936
aF0.7519515600000011
aF0.7717548399999933
aF0.7701044399999968
aF0.7762738800000041
aF0.7567898799999992
aF0.7439580000000002
aF0.7753549999999876
aF0.7737104000000018
aF0.7867527599999818
aF0.7720527599999988
aF0.7846578399999963
aF0.7777073199999971
aF0.7340894000000032
aF0.7767642399999941
aF0.7534754000000082
ass(g130
I8
tp440
(dp441
g13
(lp442
F0.0035849999999999996
aF0.00569028
aF0.00648132
aF0.005659159999999999
aF0.005442000000000001
aF0.004384880000000001
aF0.006810319999999999
aF0.00496716
aF0.006266960000000001
aF0.006759600000000001
aF0.006653719999999999
aF0.006705319999999999
aF0.006863360000000001
aF0.006874200000000001
aF0.005559160000000001
aF0.00439912
aF0.0054062
aF0.003919879999999998
aF0.006021760000000002
aF0.0062023600000000005
aF0.006432079999999999
aF0.006144160000000002
aF0.006875280000000001
aF0.00516536
aF0.00572428
aF0.0069717600000000005
aF0.006110320000000001
aF0.00489388
aF0.006159959999999999
aF0.0046358
aF0.0063840799999999994
aF0.0050414000000000014
aF0.0056969199999999985
aF0.006943279999999998
aF0.0067412
aF0.0067097200000000015
aF0.007739040000000003
aF0.0065169600000000005
aF0.008026400000000001
aF0.00442372
aF0.005872320000000001
aF0.00670404
aF0.00595848
aF0.00594836
aF0.00848432
aF0.00455404
aF0.005263160000000001
aF0.005972040000000001
aF0.0058156
aF0.007465039999999999
ass(g1
(g5
S'\x9a\x99\x99\x99\x99\x99\xe9?'
p443
tp444
Rp445
I6
tp446
(dp447
g32
(lp448
F0.09182980000000007
aF0.09056307999999998
aF0.11940771999999987
aF0.11417244000000004
aF0.08632940000000008
aF0.09447528000000008
aF0.10431191999999999
aF0.11260444000000007
aF0.09084984000000002
aF0.08703364
aF0.09895428
aF0.09814820000000006
aF0.10536879999999997
aF0.12229075999999998
aF0.11903496000000006
aF0.08956851999999992
aF0.11660027999999993
aF0.11014424000000003
aF0.10041511999999998
aF0.10983103999999998
aF0.11152999999999993
aF0.10698251999999998
aF0.09810811999999991
aF0.10677412
aF0.10115364000000006
aF0.10036791999999985
aF0.09020043999999992
aF0.0984381199999999
aF0.09445219999999983
aF0.10337172000000007
aF0.10174364000000007
aF0.1125745599999999
aF0.09340479999999994
aF0.09702303999999999
aF0.09815576
aF0.09180783999999992
aF0.10026371999999988
aF0.09796132000000005
aF0.10791548000000001
aF0.11045219999999994
aF0.09595379999999999
aF0.09793220000000008
aF0.096013
aF0.11574748
aF0.10095531999999993
aF0.08636448
aF0.09733148000000008
aF0.09807740000000018
aF0.0918714
aF0.08677932000000009
ass(g1
(g5
S'433333\xeb?'
p449
tp450
Rp451
I4
tp452
(dp453
g48
(lp454
F0.07945632000000008
aF0.09612719999999995
aF0.08197696000000004
aF0.08006051999999993
aF0.08834748000000002
aF0.0775564
aF0.08067307999999992
aF0.06968844
aF0.08297611999999999
aF0.08044672000000001
aF0.08299604000000005
aF0.07813623999999995
aF0.08671607999999992
aF0.08577951999999998
aF0.07865923999999994
aF0.0887406000000001
aF0.08525524000000001
aF0.08610863999999996
aF0.09417552000000014
aF0.0794503600000001
aF0.08671572000000005
aF0.07452840000000005
aF0.09819044000000007
aF0.08762224000000007
aF0.08009419999999999
aF0.08154887999999992
aF0.07938295999999995
aF0.08696443999999995
aF0.07756243999999998
aF0.10140959999999986
aF0.09546815999999994
aF0.07887583999999993
aF0.07997835999999997
aF0.08809687999999996
aF0.07753967999999992
aF0.08043760000000007
aF0.08007000000000004
aF0.08157692000000008
aF0.08129924000000005
aF0.09390807999999996
aF0.09658051999999992
aF0.08241764000000004
aF0.08876056000000004
aF0.09229003999999995
aF0.08729667999999995
aF0.08186488
aF0.07646168000000007
aF0.0799275999999999
aF0.08981648000000002
aF0.09365464000000005
ass(g1
(g5
S'gfffff\xd6?'
p455
tp456
Rp457
I4
tp458
(dp459
g48
(lp460
F0.0003192
aF0.00076252
aF0.0011192799999999998
aF0.0010397600000000003
aF0.0008301200000000002
aF0.0006389999999999999
aF0.0008862000000000001
aF0.0009469600000000002
aF0.00126664
aF0.00118708
aF0.0013944800000000002
aF0.00108564
aF0.0013806399999999998
aF0.00080128
aF0.00130072
aF0.00177016
aF0.0009660000000000001
aF0.0014252400000000001
aF0.0017126800000000003
aF0.0007178
aF0.00106136
aF0.0008933200000000001
aF0.00128684
aF0.0020503599999999998
aF0.0006004000000000001
aF0.00163196
aF0.00098284
aF0.000536
aF0.00190716
aF0.0017288800000000001
aF0.0008799999999999999
aF0.0011631599999999999
aF0.0007644400000000001
aF0.0011988800000000003
aF0.0010867199999999998
aF0.0009172800000000001
aF0.00074784
aF0.0008022000000000002
aF0.0011699199999999999
aF0.00197164
aF0.0009292800000000001
aF0.0013819600000000002
aF0.0012088399999999999
aF0.0008442400000000001
aF0.00128688
aF0.0006122400000000001
aF0.00105876
aF0.0009168
aF0.00111728
aF0.0015195200000000001
ass(g82
I8
tp461
(dp462
g13
(lp463
F0.0009980400000000002
aF0.00090388
aF0.00108444
aF0.0005715200000000001
aF0.00027432
aF0.0012636000000000001
aF0.00080628
aF0.0009704399999999999
aF0.00045472000000000004
aF0.0006927200000000001
aF0.0008976399999999999
aF0.00044072
aF0.0007769200000000001
aF0.00059612
aF0.0009960400000000001
aF0.0007904
aF0.00085804
aF0.0010634400000000001
aF0.0005023600000000001
aF0.0008815600000000001
aF0.0005884
aF0.00092336
aF0.0012245200000000002
aF0.0008640799999999999
aF0.00056096
aF0.00076716
aF0.00049888
aF0.0006246800000000001
aF0.00072328
aF0.00183868
aF0.00042080000000000004
aF0.00077312
aF0.0007017600000000001
aF0.0008800800000000001
aF0.0010804400000000002
aF0.00052068
aF0.00105688
aF0.0005074400000000001
aF0.00095312
aF0.00056136
aF0.0008328400000000001
aF0.00059696
aF0.00078852
aF0.00095124
aF0.00120588
aF0.00112172
aF0.0014831600000000003
aF0.0007653600000000001
aF0.00077516
aF0.00042116
ass(g109
I24
tp464
(dp465
g13
(lp466
F0.16621275999999988
aF0.1452405200000001
aF0.13407479999999974
aF0.13941255999999996
aF0.1544695999999997
aF0.13955080000000009
aF0.13736904000000005
aF0.13848507999999995
aF0.13305843999999994
aF0.14116840000000017
aF0.14541839999999956
aF0.14632628000000003
aF0.15676944000000018
aF0.1463165600000002
aF0.12732911999999988
aF0.16882084000000025
aF0.16365195999999999
aF0.15616104000000003
aF0.14591567999999996
aF0.14657791999999997
aF0.1367730000000001
aF0.14846460000000022
aF0.1432122
aF0.14707440000000013
aF0.1626092799999998
aF0.16778452000000046
aF0.15531499999999993
aF0.14517091999999998
aF0.13552511999999994
aF0.1476706800000001
aF0.1381040400000001
aF0.14763111999999998
aF0.16180007999999996
aF0.1506058399999998
aF0.14140656000000001
aF0.14189415999999969
aF0.16558295999999997
aF0.17235859999999964
aF0.14704568
aF0.14165996000000006
aF0.13913860000000008
aF0.15521099999999977
aF0.15371260000000006
aF0.13167776
aF0.1376963999999999
aF0.16176935999999986
aF0.15494251999999983
aF0.1823940400000003
aF0.13306208000000003
aF0.13620932
ass(g436
I8
tp467
(dp468
g13
(lp469
F0.28022480000000016
aF0.27120484000000056
aF0.27917560000000113
aF0.26314543999999984
aF0.26134415999999994
aF0.2949648000000006
aF0.26732083999999967
aF0.2576317200000004
aF0.25421608000000023
aF0.2762314000000009
aF0.2470829600000002
aF0.2677459600000007
aF0.2626558400000002
aF0.2619548800000004
aF0.25776716000000016
aF0.28288119999999994
aF0.2514425999999998
aF0.24965723999999997
aF0.2658208
aF0.25679195999999976
aF0.25310151999999997
aF0.24246411999999987
aF0.2506832399999992
aF0.2682442800000002
aF0.29232248
aF0.24691503999999997
aF0.30774532000000193
aF0.28608199999999995
aF0.2744018800000004
aF0.29008899999999954
aF0.2785945200000001
aF0.26903599999999966
aF0.24260440000000028
aF0.2830724399999998
aF0.26839904000000064
aF0.30868779999999957
aF0.27785852000000016
aF0.2723359199999994
aF0.24333008000000006
aF0.26329027999999965
aF0.28895752000000013
aF0.26035035999999984
aF0.2842907999999994
aF0.27349931999999977
aF0.2680006399999998
aF0.25609100000000024
aF0.29655120000000035
aF0.23734288000000003
aF0.28648111999999976
aF0.27514407999999946
ass(g229
I32
tp470
(dp471
g13
(lp472
F0.0036703600000000005
aF0.00468208
aF0.004304840000000001
aF0.0025692
aF0.0041169200000000005
aF0.00366856
aF0.0045736000000000014
aF0.003922159999999999
aF0.004210480000000001
aF0.00507608
aF0.004139520000000001
aF0.0047182
aF0.0047357200000000006
aF0.0035293600000000005
aF0.0032085200000000003
aF0.00288956
aF0.0030916400000000005
aF0.0036933600000000006
aF0.003109920000000001
aF0.003996160000000001
aF0.0025222400000000002
aF0.0034936000000000004
aF0.004349119999999999
aF0.0033884
aF0.00241576
aF0.0034984799999999996
aF0.0037497999999999997
aF0.004655799999999999
aF0.004396240000000001
aF0.00484804
aF0.0030453999999999998
aF0.005417040000000001
aF0.004083399999999999
aF0.0025118000000000007
aF0.0030962000000000003
aF0.00355616
aF0.0038996400000000002
aF0.0024874800000000002
aF0.0048434
aF0.0028999599999999996
aF0.003119360000000001
aF0.0029338399999999996
aF0.0022615600000000006
aF0.003183360000000001
aF0.0036141999999999997
aF0.0033207600000000007
aF0.0027570399999999997
aF0.00433316
aF0.00451472
aF0.0036082399999999995
ass(g211
I32
tp473
(dp474
g13
(lp475
F0.07460327999999998
aF0.08436432000000003
aF0.07204627999999996
aF0.08949315999999999
aF0.07695064000000011
aF0.06689079999999997
aF0.07421432000000003
aF0.06685228000000004
aF0.07697640000000001
aF0.07317212
aF0.08036488
aF0.06422064
aF0.07199819999999998
aF0.07499575999999997
aF0.07919596000000001
aF0.08247392000000003
aF0.07934976
aF0.08177823999999993
aF0.06333315999999999
aF0.07996132000000003
aF0.08607436000000003
aF0.06595472000000001
aF0.07006816000000003
aF0.08167524000000007
aF0.07897103999999996
aF0.06933744000000004
aF0.08692919999999993
aF0.066949
aF0.07191544000000001
aF0.08355756000000007
aF0.0735588
aF0.07852680000000001
aF0.06772032000000003
aF0.06217092000000001
aF0.08007696000000003
aF0.08029012000000003
aF0.07514372000000008
aF0.07815463999999996
aF0.07050075999999995
aF0.07156455999999999
aF0.07199955999999995
aF0.07753020000000008
aF0.07450172000000001
aF0.07320719999999997
aF0.08132248000000004
aF0.07894180000000002
aF0.07974308000000005
aF0.07786588000000003
aF0.07472907999999998
aF0.07878092000000002
ass(g100
I16
tp476
(dp477
g13
(lp478
F0.0017140400000000002
aF0.00180268
aF0.0019087600000000002
aF0.00105616
aF0.0009893999999999999
aF0.00105104
aF0.0012805999999999998
aF0.00162864
aF0.0007666799999999999
aF0.0015718000000000002
aF0.00123976
aF0.0016689600000000001
aF0.00114524
aF0.0005666
aF0.0006609599999999999
aF0.00116848
aF0.00075424
aF0.0015084
aF0.0009215600000000001
aF0.00144488
aF0.0008778000000000001
aF0.0013407599999999999
aF0.0010925199999999998
aF0.00083112
aF0.00107276
aF0.0009893200000000001
aF0.00111484
aF0.00075752
aF0.0010530399999999999
aF0.00097248
aF0.0012355200000000004
aF0.00085388
aF0.0007079600000000001
aF0.0018712400000000001
aF0.0007266400000000001
aF0.0014522
aF0.00124884
aF0.0018348000000000004
aF0.0021896000000000003
aF0.00098256
aF0.0012863199999999999
aF0.00116728
aF0.00069096
aF0.00113232
aF0.0011378
aF0.0008667999999999999
aF0.0008904399999999999
aF0.00171596
aF0.00166692
aF0.0011804800000000002
ass(g211
I16
tp479
(dp480
g13
(lp481
F0.037034639999999994
aF0.040989679999999994
aF0.04025936000000002
aF0.04206348000000001
aF0.03788747999999998
aF0.03153736
aF0.04684752000000004
aF0.03937104000000001
aF0.04583879999999999
aF0.03464972
aF0.03451740000000002
aF0.03078644000000001
aF0.040645920000000016
aF0.046361760000000016
aF0.043237800000000014
aF0.03370131999999997
aF0.043610880000000025
aF0.04215044000000002
aF0.03503383999999999
aF0.03495527999999998
aF0.04651408000000002
aF0.03783219999999999
aF0.036957199999999996
aF0.03977199999999999
aF0.041357080000000025
aF0.03529976
aF0.046013280000000024
aF0.03932824000000001
aF0.03669384000000001
aF0.04148324000000001
aF0.036399320000000006
aF0.036319560000000015
aF0.04059144000000002
aF0.038856079999999994
aF0.03489716
aF0.04238072000000004
aF0.03889115999999997
aF0.03879096
aF0.03875335999999997
aF0.04338147999999997
aF0.03647023999999999
aF0.04194700000000004
aF0.03660360000000003
aF0.03299756000000002
aF0.03930543999999999
aF0.04041019999999998
aF0.03624048000000002
aF0.042794360000000004
aF0.03768108
aF0.03920143999999997
ass(g184
I16
tp482
(dp483
g13
(lp484
F0.010171319999999996
aF0.009930200000000002
aF0.014293679999999993
aF0.01010804
aF0.013368479999999999
aF0.01197112
aF0.014236039999999997
aF0.015204880000000002
aF0.011468119999999997
aF0.012362280000000005
aF0.010264160000000003
aF0.010529800000000004
aF0.00972164
aF0.011958519999999997
aF0.012256239999999998
aF0.013428240000000003
aF0.011858159999999993
aF0.010243039999999995
aF0.010507720000000007
aF0.010011479999999998
aF0.011583600000000001
aF0.011308799999999999
aF0.017337760000000004
aF0.01726096
aF0.0133938
aF0.010941960000000008
aF0.01305696
aF0.011697760000000001
aF0.010178079999999997
aF0.011499839999999997
aF0.01110416
aF0.013494760000000005
aF0.010315120000000006
aF0.012336440000000008
aF0.014448119999999998
aF0.013294000000000005
aF0.011477440000000004
aF0.010493520000000001
aF0.015241199999999996
aF0.012789919999999998
aF0.011574439999999993
aF0.016894360000000008
aF0.009982000000000001
aF0.014958080000000002
aF0.016761279999999996
aF0.012629600000000001
aF0.011100959999999998
aF0.011637
aF0.00870628
aF0.0091806
ass(g1
(g5
S'gfffff\xe6?'
p485
tp486
Rp487
I4
tp488
(dp489
g48
(lp490
F0.02556892000000001
aF0.025924159999999988
aF0.019622360000000005
aF0.028245840000000015
aF0.02367436
aF0.02062652000000001
aF0.02068244
aF0.025446599999999993
aF0.024854359999999985
aF0.023134200000000008
aF0.026631640000000012
aF0.023379240000000003
aF0.025354600000000015
aF0.02557140000000001
aF0.02635704
aF0.020040400000000014
aF0.023232560000000006
aF0.03457884
aF0.026354400000000024
aF0.02283051999999999
aF0.02363432000000001
aF0.022960959999999992
aF0.02735432000000001
aF0.023219560000000004
aF0.022012799999999985
aF0.020741239999999994
aF0.02513855999999999
aF0.026765800000000013
aF0.028621959999999984
aF0.026591679999999993
aF0.020879599999999998
aF0.027217280000000007
aF0.02315576
aF0.02078419999999999
aF0.022939200000000003
aF0.026536959999999984
aF0.02780592000000001
aF0.017021120000000008
aF0.024730399999999993
aF0.025353439999999998
aF0.02757711999999999
aF0.022987679999999996
aF0.02452320000000001
aF0.029762640000000003
aF0.029592359999999998
aF0.025584559999999996
aF0.023714840000000008
aF0.01795132000000001
aF0.021559439999999996
aF0.026677360000000015
ass(g436
I32
tp491
(dp492
g13
(lp493
F0.6756472400000035
aF0.7249340799999968
aF0.7099111600000004
aF0.7076296799999995
aF0.701715760000006
aF0.6880496399999959
aF0.6706436400000004
aF0.6955643599999992
aF0.7001857200000013
aF0.6681473999999996
aF0.7114632400000056
aF0.6856061999999964
aF0.6826074800000014
aF0.7051865199999957
aF0.7219547999999874
aF0.6954698800000034
aF0.6955344799999937
aF0.6999957199999988
aF0.6891869600000011
aF0.6952554799999942
aF0.7102966800000025
aF0.69740931999999
aF0.6885969599999958
aF0.6771637600000051
aF0.7034166800000032
aF0.6985298399999971
aF0.7286254800000004
aF0.6850783599999939
aF0.7116556799999989
aF0.7051124399999942
aF0.6856538799999904
aF0.675635079999991
aF0.7030645999999986
aF0.6896629200000073
aF0.6839064399999949
aF0.6966468400000052
aF0.6895512399999967
aF0.6845255200000053
aF0.6955340399999992
aF0.6779248800000027
aF0.6862542399999981
aF0.7118470400000005
aF0.688599439999998
aF0.6587928800000019
aF0.7015595999999906
aF0.6865816400000109
aF0.6843942000000092
aF0.6892928799999977
aF0.6889106400000037
aF0.6849957999999942
ass(g178
I24
tp494
(dp495
g13
(lp496
F0.018018679999999995
aF0.015398759999999996
aF0.019986159999999985
aF0.01743312
aF0.019093639999999995
aF0.018579839999999997
aF0.020007479999999998
aF0.015156040000000004
aF0.017473239999999998
aF0.018778399999999997
aF0.017035360000000006
aF0.022104440000000017
aF0.022263960000000003
aF0.018309839999999997
aF0.017418880000000008
aF0.018919560000000005
aF0.01803872
aF0.01573848
aF0.016369440000000002
aF0.02270096
aF0.01298232
aF0.019082760000000008
aF0.015670120000000003
aF0.019719880000000002
aF0.015019240000000003
aF0.01849568
aF0.01753984
aF0.01851356
aF0.016533240000000008
aF0.01705332
aF0.014152199999999997
aF0.014442280000000002
aF0.018712200000000005
aF0.012284600000000001
aF0.014223280000000001
aF0.01998004
aF0.018816799999999995
aF0.020106640000000005
aF0.018635199999999998
aF0.019906040000000003
aF0.020986840000000003
aF0.016942159999999994
aF0.016799480000000006
aF0.018116360000000005
aF0.01845932000000001
aF0.01964216
aF0.01858711999999999
aF0.018033399999999998
aF0.018153599999999995
aF0.014318879999999997
ass(g1
(g5
S'433333\xd3?'
p497
tp498
Rp499
I6
tp500
(dp501
g32
(lp502
F0.0013484
aF0.00100464
aF0.00168152
aF0.00129248
aF0.00089884
aF0.0016164399999999998
aF0.0009002400000000001
aF0.0008615600000000001
aF0.0007826400000000001
aF0.00037688
aF0.0016665200000000001
aF0.00099568
aF0.0021822400000000002
aF0.00120656
aF0.0017568800000000002
aF0.0019302400000000002
aF0.00218904
aF0.0012187600000000002
aF0.00156416
aF0.00033212
aF0.00106108
aF0.0012522800000000001
aF0.0009232000000000001
aF0.0012558
aF0.0013479999999999998
aF0.0018948400000000003
aF0.00096516
aF0.0012183200000000002
aF0.00176144
aF0.00064812
aF0.00123492
aF0.00082472
aF0.00072572
aF0.00151384
aF0.0010839200000000002
aF0.0015432000000000002
aF0.0010830000000000002
aF0.00245992
aF0.0011818800000000002
aF0.00100196
aF0.00070704
aF0.00093216
aF0.0013336399999999999
aF0.0012494000000000001
aF0.00119904
aF0.00103072
aF0.00119532
aF0.00131152
aF0.0018254800000000002
aF0.00122748
ass(g436
I16
tp503
(dp504
g13
(lp505
F0.5480731999999999
aF0.5543195199999986
aF0.5003363200000026
aF0.5412083200000006
aF0.5379922399999961
aF0.5259173200000014
aF0.5655688799999969
aF0.5245452399999984
aF0.5463800799999988
aF0.5335183599999983
aF0.5291996000000049
aF0.542778039999998
aF0.544343199999999
aF0.5428173200000026
aF0.5595911599999978
aF0.5348474400000003
aF0.5370664400000011
aF0.5617027200000007
aF0.5029455200000019
aF0.5490421200000014
aF0.5260652000000001
aF0.5304978799999996
aF0.556150359999999
aF0.5526081999999987
aF0.5484728399999944
aF0.560894799999998
aF0.555749640000004
aF0.5384588000000008
aF0.5658190400000015
aF0.5197829199999996
aF0.551743039999998
aF0.5461910399999996
aF0.5502434799999979
aF0.5585150399999985
aF0.5459701200000052
aF0.5285145200000028
aF0.5438733199999954
aF0.5369206799999989
aF0.5319488000000023
aF0.5488955599999994
aF0.5176573600000032
aF0.5347874400000016
aF0.5617914400000014
aF0.5411049999999937
aF0.5548749199999993
aF0.5584459599999976
aF0.5413585599999995
aF0.5512533199999992
aF0.535719560000002
aF0.5452764800000026
ass(g184
I24
tp506
(dp507
g13
(lp508
F0.0313068
aF0.02653172
aF0.030619759999999996
aF0.022696239999999996
aF0.026461520000000006
aF0.032984719999999974
aF0.032554159999999985
aF0.030638320000000007
aF0.03730327999999999
aF0.031085039999999994
aF0.04026772
aF0.02600668
aF0.029016839999999995
aF0.03220995999999999
aF0.029287159999999965
aF0.029918200000000016
aF0.032285319999999985
aF0.026351040000000013
aF0.03499344
aF0.033944080000000015
aF0.03017627999999999
aF0.03990992000000003
aF0.029011959999999993
aF0.029412879999999992
aF0.024928440000000003
aF0.03226624000000001
aF0.026662839999999997
aF0.03792351999999998
aF0.03120484
aF0.029966240000000012
aF0.03298055999999999
aF0.030062240000000007
aF0.04026751999999999
aF0.026048159999999997
aF0.03255971999999998
aF0.027079240000000008
aF0.03180140000000001
aF0.028346759999999985
aF0.02857388
aF0.03171312
aF0.031197599999999992
aF0.03158084000000001
aF0.03738952000000001
aF0.03422315999999999
aF0.034961519999999996
aF0.02616944
aF0.03193616
aF0.030035879999999994
aF0.027814639999999984
aF0.027723560000000008
ass(g229
I24
tp509
(dp510
g13
(lp511
F0.00319328
aF0.00392116
aF0.0033197599999999997
aF0.0048940400000000005
aF0.0024758000000000002
aF0.0024983600000000007
aF0.00253496
aF0.0045850000000000005
aF0.00349728
aF0.003475199999999999
aF0.00313944
aF0.003850320000000001
aF0.0038365999999999995
aF0.00364544
aF0.0027568799999999997
aF0.0027755600000000007
aF0.0039451600000000005
aF0.0037568000000000002
aF0.0037484799999999993
aF0.0030850000000000005
aF0.0024119199999999997
aF0.004013399999999999
aF0.0029396
aF0.0035810800000000004
aF0.003642720000000001
aF0.00363744
aF0.0031035200000000002
aF0.004781760000000001
aF0.00423544
aF0.0034930399999999998
aF0.00247164
aF0.0034996800000000007
aF0.004190200000000001
aF0.004332839999999999
aF0.002973279999999999
aF0.00442524
aF0.00446608
aF0.004779319999999999
aF0.0031674000000000008
aF0.004116719999999999
aF0.00252336
aF0.004157760000000002
aF0.004065840000000001
aF0.003938719999999999
aF0.004753159999999999
aF0.0036825599999999997
aF0.004208240000000001
aF0.0015916800000000007
aF0.0034054399999999996
aF0.0030911999999999992
ass(g1
(g5
S'\x9a\x99\x99\x99\x99\x99\xa9?'
p512
tp513
Rp514
I6
tp515
(dp516
g32
(lp517
F0.00106708
aF0.0008477999999999999
aF0.00093648
aF0.001079
aF0.0008407200000000001
aF0.00107108
aF0.0007104800000000001
aF0.00073172
aF0.000905
aF0.0006432
aF0.00047188000000000004
aF0.00064188
aF0.00170188
aF0.000431
aF0.00063096
aF0.0005400800000000001
aF0.00102376
aF0.001031
aF0.0009402
aF0.0008714
aF0.00033348000000000004
aF0.0012341200000000002
aF0.0008552000000000001
aF0.0007444
aF0.00157424
aF0.00072356
aF0.0006394
aF0.0008471200000000001
aF0.00024732
aF0.00036096
aF0.00075144
aF0.00062496
aF0.00092908
aF0.00056268
aF0.0007523200000000001
aF0.0010799200000000003
aF0.0005536800000000001
aF0.00100632
aF0.00044088000000000005
aF0.00070388
aF0.00064328
aF0.0012936400000000002
aF0.00118836
aF0.00034944
aF0.00047512
aF0.00055164
aF0.0006698400000000001
aF0.0008914400000000001
aF0.00029976
aF0.00041532000000000006
ass(g1
(g5
S'433333\xe3?'
p518
tp519
Rp520
I6
tp521
(dp522
g32
(lp523
F0.015772200000000004
aF0.02304328
aF0.02059148000000001
aF0.012739680000000003
aF0.017643920000000007
aF0.013825800000000003
aF0.012980040000000005
aF0.018574160000000006
aF0.020630719999999995
aF0.016491160000000005
aF0.021750880000000007
aF0.017644319999999995
aF0.015254560000000004
aF0.019494760000000003
aF0.01633976000000001
aF0.017597200000000004
aF0.014473880000000005
aF0.015564079999999998
aF0.0159724
aF0.014889279999999996
aF0.012624639999999998
aF0.012779640000000002
aF0.012466840000000005
aF0.02042584
aF0.01496364
aF0.01805272
aF0.017597359999999992
aF0.014755599999999999
aF0.020374160000000002
aF0.017026000000000006
aF0.013204120000000001
aF0.014775080000000005
aF0.021763479999999998
aF0.01843012000000001
aF0.013942560000000003
aF0.019285399999999998
aF0.017762119999999996
aF0.017931280000000008
aF0.017790320000000016
aF0.015230520000000004
aF0.015783199999999997
aF0.013661160000000002
aF0.021825960000000016
aF0.01629664
aF0.013641720000000005
aF0.013065159999999994
aF0.012980760000000001
aF0.014740439999999999
aF0.016968200000000003
aF0.018950719999999994
ass.