(dp0
S'wgEncodeAwgTfbsHaibHepg2Hnf4gsc6558V0416101UniPk'
p1
(dp2
S'CNN'
p3
cnumpy.core.multiarray
scalar
p4
(cnumpy
dtype
p5
(S'f8'
p6
I0
I1
tp7
Rp8
(I3
S'<'
p9
NNNI-1
I-1
I0
tp10
bS'1\xf1\xc6\x01|\x98\xed?'
p11
tp12
Rp13
sS'vCNN_IC'
p14
g4
(g8
S'\xc1\xc4&\xc4\x8f\xca\xed?'
p15
tp16
Rp17
ssS'wgEncodeAwgTfbsBroadHelas3Ezh239875UniPk'
p18
(dp19
g3
g4
(g8
S'\xc2\x8a\r\xeb\x9a\x1b\xe6?'
p20
tp21
Rp22
sg14
g4
(g8
S'~\xfe\xbc\xde,\xc4\xe6?'
p23
tp24
Rp25
ssS'wgEncodeAwgTfbsHaibPanc1NrsfPcr2xUniPk'
p26
(dp27
g3
g4
(g8
S'\xadg\xe8\x91\x11\xa1\xec?'
p28
tp29
Rp30
sg14
g4
(g8
S'\xacY\x12\xdb\x84<\xed?'
p31
tp32
Rp33
ssS'wgEncodeAwgTfbsHaibGm12878P300Pcr1xUniPk'
p34
(dp35
g3
g4
(g8
S'X\xe9f<\xd3\xb8\xea?'
p36
tp37
Rp38
sg14
g4
(g8
S',\xf2\xc5X\xfcE\xeb?'
p39
tp40
Rp41
ssS'wgEncodeAwgTfbsSydhNb4CmycUniPk'
p42
(dp43
g3
g4
(g8
S'\xa1U\x92-\x16\xce\xeb?'
p44
tp45
Rp46
sg14
g4
(g8
S'\xc3v\xc5{\x14\xb6\xeb?'
p47
tp48
Rp49
ssS'wgEncodeAwgTfbsUtaHelas3Pol2UniPk'
p50
(dp51
g3
g4
(g8
S'\x18\x1d<v\xd7,\xe9?'
p52
tp53
Rp54
sg14
g4
(g8
S'\x12\x90\xd4\xe4+\xb3\xe9?'
p55
tp56
Rp57
ssS'wgEncodeAwgTfbsSydhHelas3Elk112771IggrabUniPk'
p58
(dp59
g3
g4
(g8
S'\xc4\xcb\xdap\x19\x96\xec?'
p60
tp61
Rp62
sg14
g4
(g8
S'.\xd8\x1a\xe8\xfa\x9e\xec?'
p63
tp64
Rp65
ssS'wgEncodeAwgTfbsHaibA549Elf1V0422111Etoh02UniPk'
p66
(dp67
g3
g4
(g8
S'\x16\xfb\x15\xca\xa8\xd2\xeb?'
p68
tp69
Rp70
sg14
g4
(g8
S'\xceY;\xaeE\x14\xec?'
p71
tp72
Rp73
ssS'wgEncodeAwgTfbsSydhK562CjunUniPk'
p74
(dp75
g3
g4
(g8
S'>\x99\rz\xe6\xac\xee?'
p76
tp77
Rp78
sg14
g4
(g8
S'\x0fx\xe1\x86\x0f\xcf\xee?'
p79
tp80
Rp81
ssS'wgEncodeAwgTfbsUwHaspCtcfUniPk'
p82
(dp83
g3
g4
(g8
S'\\\xb1\x8a\x1axO\xee?'
p84
tp85
Rp86
sg14
g4
(g8
S'\xe7"]\x1a\x04f\xef?'
p87
tp88
Rp89
ssS'wgEncodeAwgTfbsSydhK562Irf1Ifng30UniPk'
p90
(dp91
g3
g4
(g8
S'Zk\x9a\x1f$\x0f\xea?'
p92
tp93
Rp94
sg14
g4
(g8
S'\xf91\x8b\x13*e\xea?'
p95
tp96
Rp97
ssS'wgEncodeAwgTfbsSydhK562Stat1Ifna6hUniPk'
p98
(dp99
g3
g4
(g8
S'\xa4\x9d\xf4\xd1\x9dC\xeb?'
p100
tp101
Rp102
sg14
g4
(g8
S'\xbf\n9p\xc6$\xeb?'
p103
tp104
Rp105
ssS'wgEncodeAwgTfbsHaibHepg2Sp2V0422111UniPk'
p106
(dp107
g3
g4
(g8
S'\x1c\xdd\xe4\x03\x80p\xed?'
p108
tp109
Rp110
sg14
g4
(g8
S'P)\x8e!o\xa5\xed?'
p111
tp112
Rp113
ssS'wgEncodeAwgTfbsHaibH1hescEgr1V0416102UniPk'
p114
(dp115
g3
g4
(g8
S'\xf4-\xe2\xc0\xfe\xc2\xeb?'
p116
tp117
Rp118
sg14
g4
(g8
S'5\tW\xe6?\xff\xeb?'
p119
tp120
Rp121
ssS'wgEncodeAwgTfbsHaibEcc1CtcfcV0416102Dm002p1hUniPk'
p122
(dp123
g3
g4
(g8
S'\x7f\xf7qB6\xc6\xee?'
p124
tp125
Rp126
sg14
g4
(g8
S'\x7fnG\xa8m\x9c\xef?'
p127
tp128
Rp129
ssS'wgEncodeAwgTfbsSydhMcf10aesCmycEtoh01HvdUniPk'
p130
(dp131
g3
g4
(g8
S'\xd3\xc1\x0c\x15\x02\xe6\xec?'
p132
tp133
Rp134
sg14
g4
(g8
S'\x84\xe07`\xe0\xbb\xec?'
p135
tp136
Rp137
ssS'wgEncodeAwgTfbsSydhNt2d1Yy1UcdUniPk'
p138
(dp139
g3
g4
(g8
S'T>R\xc55\x18\xee?'
p140
tp141
Rp142
sg14
g4
(g8
S'JA\x060\x14\x1e\xee?'
p143
tp144
Rp145
ssS'wgEncodeAwgTfbsSydhU2osKap1UcdUniPk'
p146
(dp147
g3
g4
(g8
S'\xe4\xa7\x1f+\x93\x01\xe9?'
p148
tp149
Rp150
sg14
g4
(g8
S'v#{\x13c\xba\xe8?'
p151
tp152
Rp153
ssS'wgEncodeAwgTfbsSydhK562Corestsc30189IggrabUniPk'
p154
(dp155
g3
g4
(g8
S'\x1c@j=\xbc+\xec?'
p156
tp157
Rp158
sg14
g4
(g8
S'\xc06\xce?\x0c=\xec?'
p159
tp160
Rp161
ssS'wgEncodeAwgTfbsSydhGm12878MaxIggmusUniPk'
p162
(dp163
g3
g4
(g8
S'\xe2\xfb\xdb_\xb1\xb5\xea?'
p164
tp165
Rp166
sg14
g4
(g8
S'\x9e\x1a\x86>Z\xb4\xea?'
p167
tp168
Rp169
ssS'wgEncodeAwgTfbsUtaGm12891CtcfUniPk'
p170
(dp171
g3
g4
(g8
S'H\x0fQ\x8e\xde\xa9\xec?'
p172
tp173
Rp174
sg14
g4
(g8
S'\xa7\xce\xb6!\xd0!\xee?'
p175
tp176
Rp177
ssS'wgEncodeAwgTfbsSydhGm12878Ctcfsc15914c20UniPk'
p178
(dp179
g3
g4
(g8
S"Q\x1aE\t'\x08\xee?"
p180
tp181
Rp182
sg14
g4
(g8
S'G\xcc:\xa8\xd0_\xef?'
p183
tp184
Rp185
ssS'wgEncodeAwgTfbsSydhGm18505NfkbTnfaIggrabUniPk'
p186
(dp187
g3
g4
(g8
S'A>\x18fA\xfd\xeb?'
p188
tp189
Rp190
sg14
g4
(g8
S'\xa6\x82\xbe\xa4B@\xec?'
p191
tp192
Rp193
ssS'wgEncodeAwgTfbsHaibHepg2Atf3V0416101UniPk'
p194
(dp195
g3
g4
(g8
S'\x9f:P\xe2\x8bC\xed?'
p196
tp197
Rp198
sg14
g4
(g8
S'G\xef\xbe \xe2Z\xed?'
p199
tp200
Rp201
ssS'wgEncodeAwgTfbsSydhPbdeGata1UcdUniPk'
p202
(dp203
g3
g4
(g8
S'@\xe8\xfe\x10\xcf\x7f\xeb?'
p204
tp205
Rp206
sg14
g4
(g8
S"F'N\x15%d\xeb?"
p207
tp208
Rp209
ssS'wgEncodeAwgTfbsHaibH1hescSin3ak20Pcr1xUniPk'
p210
(dp211
g3
g4
(g8
S'\r\xd6-/6\xb8\xea?'
p212
tp213
Rp214
sg14
g4
(g8
S'\n\xa4k\x8f)\x01\xeb?'
p215
tp216
Rp217
ssS'wgEncodeAwgTfbsHaibGm12878Bcl3V0416101UniPk'
p218
(dp219
g3
g4
(g8
S'a\xbb\xf6>\xf9\xa0\xeb?'
p220
tp221
Rp222
sg14
g4
(g8
S'\xe2%\xde\xdew\xfd\xeb?'
p223
tp224
Rp225
ssS'wgEncodeAwgTfbsSydhHelas3E2f1UniPk'
p226
(dp227
g3
g4
(g8
S'\xb3(7\xc0\x06\n\xec?'
p228
tp229
Rp230
sg14
g4
(g8
S'\x0e\x94\xf2A\xf5\r\xec?'
p231
tp232
Rp233
ssS'wgEncodeAwgTfbsHaibH1hescBcl11aPcr1xUniPk'
p234
(dp235
g3
g4
(g8
S'\x87a\xe3\x97\x99\xde\xeb?'
p236
tp237
Rp238
sg14
g4
(g8
S'k\xe4\xd0\xd8s_\xec?'
p239
tp240
Rp241
ssS'wgEncodeAwgTfbsSydhHelas3Rad21IggrabUniPk'
p242
(dp243
g3
g4
(g8
S'\xbc\xfe\xdf\xf2\x89n\xed?'
p244
tp245
Rp246
sg14
g4
(g8
S'\xf0\x03\xed\xed\xb7\x92\xee?'
p247
tp248
Rp249
ssS'wgEncodeAwgTfbsHaibA549Usf1V0422111Etoh02UniPk'
p250
(dp251
g3
g4
(g8
S'b\xe3\x0e\x99\xeb_\xed?'
p252
tp253
Rp254
sg14
g4
(g8
S'd\x8b\x7f\xe1\x9fP\xed?'
p255
tp256
Rp257
ssS'wgEncodeAwgTfbsUwHelas3CtcfUniPk'
p258
(dp259
g3
g4
(g8
S'\xa6 C\xcfSs\xee?'
p260
tp261
Rp262
sg14
g4
(g8
S'{/3\x9bJ\x88\xef?'
p263
tp264
Rp265
ssS'wgEncodeAwgTfbsSydhGm08714Znf274UcdUniPk'
p266
(dp267
g3
g4
(g8
S'\x0c[\x0f\xcb\x14J\xed?'
p268
tp269
Rp270
sg14
g4
(g8
S"\x8b'/\x14\xf0\x85\xed?"
p271
tp272
Rp273
ssS'wgEncodeAwgTfbsSydhGm12878Tblr1ab24550IggmusUniPk'
p274
(dp275
g3
g4
(g8
S'H\xe5#\x12=U\xea?'
p276
tp277
Rp278
sg14
g4
(g8
S'A7\xbf7;\x8a\xea?'
p279
tp280
Rp281
ssS'wgEncodeAwgTfbsBroadK562Sap3039731UniPk'
p282
(dp283
g3
g4
(g8
S'\x9e\x97[\x02\t\x1d\xe9?'
p284
tp285
Rp286
sg14
g4
(g8
S'\x7f\xa5\xf14a\x8e\xe9?'
p287
tp288
Rp289
ssS'wgEncodeAwgTfbsHaibSknshPol24h8V0416101UniPk'
p290
(dp291
g3
g4
(g8
S'\x88\x0f\x7f\x84\xf7\x90\xea?'
p292
tp293
Rp294
sg14
g4
(g8
S'\x04\x8b{#U\xa2\xea?'
p295
tp296
Rp297
ssS'wgEncodeAwgTfbsSydhGm12878Pol2IggmusUniPk'
p298
(dp299
g3
g4
(g8
S'\x13\xc4\xd7\x8f\xfd\xf7\xe8?'
p300
tp301
Rp302
sg14
g4
(g8
S'\xa4i\x9aP2\xdd\xe8?'
p303
tp304
Rp305
ssS'wgEncodeAwgTfbsSydhK562Bdp1UniPk'
p306
(dp307
g3
g4
(g8
S"\xde\xc3\xc0^0'\xe6?"
p308
tp309
Rp310
sg14
g4
(g8
S'\xbb\x8eQ\x9c\xeb\x18\xe5?'
p311
tp312
Rp313
ssS'wgEncodeAwgTfbsHaibGm12878Zbtb33Pcr1xUniPk'
p314
(dp315
g3
g4
(g8
S'f\xa2\xc2\xfei\x19\xeb?'
p316
tp317
Rp318
sg14
g4
(g8
S'",\xc3\xd0F\xd9\xea?'
p319
tp320
Rp321
ssS'wgEncodeAwgTfbsHaibHepg2P300V0416101UniPk'
p322
(dp323
g3
g4
(g8
S'D:/\xf3o\x9b\xec?'
p324
tp325
Rp326
sg14
g4
(g8
S'\x01^U\xe1\r\x8a\xec?'
p327
tp328
Rp329
ssS'wgEncodeAwgTfbsUwAg04450CtcfUniPk'
p330
(dp331
g3
g4
(g8
S'\x858\xdf\xeb\x99\x1c\xee?'
p332
tp333
Rp334
sg14
g4
(g8
S'v\xd5\xc6i\x89;\xef?'
p335
tp336
Rp337
ssS'wgEncodeAwgTfbsHaibSknshraYy1sc281V0416102UniPk'
p338
(dp339
g3
g4
(g8
S'\xec\x00\x18\xa8\xbf\n\xec?'
p340
tp341
Rp342
sg14
g4
(g8
S'\x991\x1e0\xdd+\xec?'
p343
tp344
Rp345
ssS'wgEncodeAwgTfbsSydhMcf10aesStat3Etoh01bUniPk'
p346
(dp347
g3
g4
(g8
S'\x8ee\xeb\x14\xcbQ\xee?'
p348
tp349
Rp350
sg14
g4
(g8
S'\xfa\xd1\x8c!~V\xee?'
p351
tp352
Rp353
ssS'wgEncodeAwgTfbsUwHbmecCtcfUniPk'
p354
(dp355
g3
g4
(g8
S'z\x86:\xf2(\xea\xed?'
p356
tp357
Rp358
sg14
g4
(g8
S'\xd0x7\xf3\x04!\xef?'
p359
tp360
Rp361
ssS'wgEncodeAwgTfbsHaibK562MaxV0416102UniPk'
p362
(dp363
g3
g4
(g8
S'E*\xca\xf1Y\x13\xec?'
p364
tp365
Rp366
sg14
g4
(g8
S'\xf7`Rw\xc8\x0c\xec?'
p367
tp368
Rp369
ssS'wgEncodeAwgTfbsHaibH1hescHdac2sc6296V0416102UniPk'
p370
(dp371
g3
g4
(g8
S'\xf0\xe0\x15\xad\xe1r\xea?'
p372
tp373
Rp374
sg14
g4
(g8
S'\xed\xa2=\x9c\xb9v\xea?'
p375
tp376
Rp377
ssS'wgEncodeAwgTfbsSydhK562Bhlhe40nb100IggrabUniPk'
p378
(dp379
g3
g4
(g8
S'\xba@\x9a\x06N\xb7\xec?'
p380
tp381
Rp382
sg14
g4
(g8
S'\xe2Ciq\xb1\xb5\xec?'
p383
tp384
Rp385
ssS'wgEncodeAwgTfbsHaibHepg2Elf1sc631V0416101UniPk'
p386
(dp387
g3
g4
(g8
S'x*~QR\xa0\xed?'
p388
tp389
Rp390
sg14
g4
(g8
S'Rz*\xac\x0f\xcf\xed?'
p391
tp392
Rp393
ssS'wgEncodeAwgTfbsSydhK562Znf274UcdUniPk'
p394
(dp395
g3
g4
(g8
S'\xd0\xc6bU\xb2\xb4\xed?'
p396
tp397
Rp398
sg14
g4
(g8
S'\xd4\x1cq\x82dR\xed?'
p399
tp400
Rp401
ssS'wgEncodeAwgTfbsSydhA549CebpbIggrabUniPk'
p402
(dp403
g3
g4
(g8
S'\xe1\xe6G\x8c\xac!\xef?'
p404
tp405
Rp406
sg14
g4
(g8
S'\xd7\x0ba\x1fWL\xef?'
p407
tp408
Rp409
ssS'wgEncodeAwgTfbsHaibGm12878Runx3sc101553V0422111UniPk'
p410
(dp411
g3
g4
(g8
S'W\x92\xdc\xcd\x02\x11\xed?'
p412
tp413
Rp414
sg14
g4
(g8
S'\xc5\x17W\xbd\xefD\xed?'
p415
tp416
Rp417
ssS'wgEncodeAwgTfbsSydhHepg2Irf3IggrabUniPk'
p418
(dp419
g3
g4
(g8
S'o\x1fE\x9am\x8d\xeb?'
p420
tp421
Rp422
sg14
g4
(g8
S'tf\r\x90\x0c\xc7\xeb?'
p423
tp424
Rp425
ssS'wgEncodeAwgTfbsSydhH1hescUsf2IggrabUniPk'
p426
(dp427
g3
g4
(g8
S'k\x80\r\x12\x8e\x81\xee?'
p428
tp429
Rp430
sg14
g4
(g8
S'$\xa2\x91\x86y\x84\xee?'
p431
tp432
Rp433
ssS'wgEncodeAwgTfbsBroadNhekEzh239875UniPk'
p434
(dp435
g3
g4
(g8
S'\xcf"\xea\xbc*i\xe8?'
p436
tp437
Rp438
sg14
g4
(g8
S'\r\t\xc9\xf6\x19\xe9\xe8?'
p439
tp440
Rp441
ssS'wgEncodeAwgTfbsUwNhekCtcfUniPk'
p442
(dp443
g3
g4
(g8
S"\xb1'e\xda@\xe0\xed?"
p444
tp445
Rp446
sg14
g4
(g8
S'\xb2\xbf\xc6\x1c\x80,\xef?'
p447
tp448
Rp449
ssS'wgEncodeAwgTfbsSydhHuvecGata2UcdUniPk'
p450
(dp451
g3
g4
(g8
S'#R\x03\xc5\xf7\xaa\xec?'
p452
tp453
Rp454
sg14
g4
(g8
S'\x9a\xa8\x06k\x85\x82\xec?'
p455
tp456
Rp457
ssS'wgEncodeAwgTfbsSydhHepg2CebpbIggrabUniPk'
p458
(dp459
g3
g4
(g8
S'\x95\x9d4t\xf3,\xef?'
p460
tp461
Rp462
sg14
g4
(g8
S".\x14\xc7'\xe7n\xef?"
p463
tp464
Rp465
ssS'wgEncodeAwgTfbsHaibSknmcFoxp2Pcr2xUniPk'
p466
(dp467
g3
g4
(g8
S'\xa2*\x13\xc5f;\xeb?'
p468
tp469
Rp470
sg14
g4
(g8
S'\xaa\xff\xbc\xa5\xf2n\xeb?'
p471
tp472
Rp473
ssS'wgEncodeAwgTfbsSydhMcf7Tcf7l2UcdUniPk'
p474
(dp475
g3
g4
(g8
S'S\xf8\x90\xa9\xfc\x9a\xea?'
p476
tp477
Rp478
sg14
g4
(g8
S'J\xde\xda\xb3\xf7\x05\xeb?'
p479
tp480
Rp481
ssS'wgEncodeAwgTfbsHaibHct116Zbtb33V0416101UniPk'
p482
(dp483
g3
g4
(g8
S';\xa5YO\xf7\x0f\xea?'
p484
tp485
Rp486
sg14
g4
(g8
S'\x0f\x0f\x9eF\xadU\xea?'
p487
tp488
Rp489
ssS'wgEncodeAwgTfbsUwGm12864CtcfUniPk'
p490
(dp491
g3
g4
(g8
S't\xd5d&}\xac\xed?'
p492
tp493
Rp494
sg14
g4
(g8
S"\xd5\x81N\x8c\x0e'\xef?"
p495
tp496
Rp497
ssS'wgEncodeAwgTfbsUwHvmfCtcfUniPk'
p498
(dp499
g3
g4
(g8
S'\x87\xca\x97\xff\x16\x18\xee?'
p500
tp501
Rp502
sg14
g4
(g8
S"i\xdf\x93\xab\xa3'\xef?"
p503
tp504
Rp505
ssS'wgEncodeAwgTfbsSydhHek293Pol2UniPk'
p506
(dp507
g3
g4
(g8
S'\xb2\xfe\xa7\xb2;\x14\xea?'
p508
tp509
Rp510
sg14
g4
(g8
S':1\xa5)\x02c\xea?'
p511
tp512
Rp513
ssS'wgEncodeAwgTfbsSydhK562TbpIggmusUniPk'
p514
(dp515
g3
g4
(g8
S'\xac\xc2/\xf5\xd0P\xea?'
p516
tp517
Rp518
sg14
g4
(g8
S'"\x7f\'\xc2\xf4O\xea?'
p519
tp520
Rp521
ssS'wgEncodeAwgTfbsHaibHepg2Pol2Pcr2xUniPk'
p522
(dp523
g3
g4
(g8
S'\x05\xed\xb7\xa4|M\xe9?'
p524
tp525
Rp526
sg14
g4
(g8
S'\xbcJ9\x89\xc6\x85\xe9?'
p527
tp528
Rp529
ssS'wgEncodeAwgTfbsBroadHepg2CtcfUniPk'
p530
(dp531
g3
g4
(g8
S'\xcd\x1eP\xac\xb0"\xee?'
p532
tp533
Rp534
sg14
g4
(g8
S'\xd2?f\xb5|C\xef?'
p535
tp536
Rp537
ssS'wgEncodeAwgTfbsHaibH1hescRxraV0416102UniPk'
p538
(dp539
g3
g4
(g8
S'<!\xb2\xd0\xff\xcb\xe8?'
p540
tp541
Rp542
sg14
g4
(g8
S'Pg{\xd2K\x04\xe9?'
p543
tp544
Rp545
ssS'wgEncodeAwgTfbsSydhK562P300IggrabUniPk'
p546
(dp547
g3
g4
(g8
S'\x08\xca5\t\x92\xae\xec?'
p548
tp549
Rp550
sg14
g4
(g8
S'(\xbbH\x11\x99j\xec?'
p551
tp552
Rp553
ssS'wgEncodeAwgTfbsSydhH1hescSin3anb6001263IggrabUniPk'
p554
(dp555
g3
g4
(g8
S'\x88\x94v\x88g\xa8\xea?'
p556
tp557
Rp558
sg14
g4
(g8
S'\xf4\x04\x9dZ\xc8\xc9\xea?'
p559
tp560
Rp561
ssS'wgEncodeAwgTfbsHaibHelas3Pol2Pcr1xUniPk'
p562
(dp563
g3
g4
(g8
S'\xa6\x8d\xc8=\x8f\x86\xe9?'
p564
tp565
Rp566
sg14
g4
(g8
S'B\xea\xb9\x7f\x0b\xb7\xe9?'
p567
tp568
Rp569
ssS'wgEncodeAwgTfbsHaibHepg2Zbtb7aV0416101UniPk'
p570
(dp571
g3
g4
(g8
S'\x8d\x04\x1b\xb1\xf7?\xeb?'
p572
tp573
Rp574
sg14
g4
(g8
S'\xbe1\xcc\xad6d\xeb?'
p575
tp576
Rp577
ssS'wgEncodeAwgTfbsUtaMcf7Pol2SerumstimUniPk'
p578
(dp579
g3
g4
(g8
S'\x1f\xc4\x87\xdaTj\xea?'
p580
tp581
Rp582
sg14
g4
(g8
S'\xe4\xaf\xbc\xe3R\x84\xea?'
p583
tp584
Rp585
ssS'wgEncodeAwgTfbsHaibGm12892Yy1V0416101UniPk'
p586
(dp587
g3
g4
(g8
S'DL\x902*\xca\xec?'
p588
tp589
Rp590
sg14
g4
(g8
S'\xe8\x02V(\x13\x1f\xed?'
p591
tp592
Rp593
ssS'wgEncodeAwgTfbsHaibHepg2Hnf4asc8987V0416101UniPk'
p594
(dp595
g3
g4
(g8
S'\xe9Q3\xef\x94\xe9\xed?'
p596
tp597
Rp598
sg14
g4
(g8
S'4\x12\x8a\xb1\xd55\xee?'
p599
tp600
Rp601
ssS'wgEncodeAwgTfbsHaibHepg2Nficsc81335V0422111UniPk'
p602
(dp603
g3
g4
(g8
S'\xe4(n\xaa\xc4\xfe\xea?'
p604
tp605
Rp606
sg14
g4
(g8
S'g\xefgn\xec\xdc\xea?'
p607
tp608
Rp609
ssS'wgEncodeAwgTfbsUtaHelas3CtcfUniPk'
p610
(dp611
g3
g4
(g8
S'\x8aS\xaacp\x1a\xee?'
p612
tp613
Rp614
sg14
g4
(g8
S'\x1fg\x84\xc8\x89p\xef?'
p615
tp616
Rp617
ssS'wgEncodeAwgTfbsHaibH1hescNanogsc33759V0416102UniPk'
p618
(dp619
g3
g4
(g8
S'\xaeL\xc6\x87\xbbc\xec?'
p620
tp621
Rp622
sg14
g4
(g8
S'\xaa9\xfd\xa0\x8f\xea\xec?'
p623
tp624
Rp625
ssS'wgEncodeAwgTfbsSydhK562Gtf2bUniPk'
p626
(dp627
g3
g4
(g8
S"\x9c\x0fEX'\xc9\xe8?"
p628
tp629
Rp630
sg14
g4
(g8
S'\xee\xccm\xb5{:\xe9?'
p631
tp632
Rp633
ssS'wgEncodeAwgTfbsSydhK562MaxIggrabUniPk'
p634
(dp635
g3
g4
(g8
S'\xd8\xa3[\xda\xd4\x01\xec?'
p636
tp637
Rp638
sg14
g4
(g8
S'\xea\x91\xb4\xab \xde\xeb?'
p639
tp640
Rp641
ssS'wgEncodeAwgTfbsSydhHelas3Ini1IggmusUniPk'
p642
(dp643
g3
g4
(g8
S'gn\x0b#~I\xe9?'
p644
tp645
Rp646
sg14
g4
(g8
S'y\xca\xcb\x0f\xb56\xe9?'
p647
tp648
Rp649
ssS'wgEncodeAwgTfbsHaibK562Thap1sc98174V0416101UniPk'
p650
(dp651
g3
g4
(g8
S'\xc4\xa5^\xb9gA\xea?'
p652
tp653
Rp654
sg14
g4
(g8
S'\xb4\xc4\xd7\xd4W\x19\xea?'
p655
tp656
Rp657
ssS'wgEncodeAwgTfbsHaibHepg2Cebpdsc636V0416101UniPk'
p658
(dp659
g3
g4
(g8
S'r\xbfK\xf7\x12\xbd\xeb?'
p660
tp661
Rp662
sg14
g4
(g8
S'\x967K\t\xa0\xd3\xeb?'
p663
tp664
Rp665
ssS'wgEncodeAwgTfbsHaibK562Pu1Pcr1xUniPk'
p666
(dp667
g3
g4
(g8
S'V\x01\xeb\x95\x9a\x15\xef?'
p668
tp669
Rp670
sg14
g4
(g8
S'k*%\x00\xa7k\xef?'
p671
tp672
Rp673
ssS'wgEncodeAwgTfbsSydhK562Stat1Ifng6hUniPk'
p674
(dp675
g3
g4
(g8
S'\xa8wZ1\xe8(\xec?'
p676
tp677
Rp678
sg14
g4
(g8
S'\x18S}\xd9\xdb<\xec?'
p679
tp680
Rp681
ssS'wgEncodeAwgTfbsBroadGm12878Ezh239875UniPk'
p682
(dp683
g3
g4
(g8
S'\xab\x99\x85C\x9e\xef\xe6?'
p684
tp685
Rp686
sg14
g4
(g8
S'\xaa!\xd4\xbcGU\xe7?'
p687
tp688
Rp689
ssS'wgEncodeAwgTfbsHaibK562Bclaf101388Pcr1xUniPk'
p690
(dp691
g3
g4
(g8
S'\x18\xce*>\x97\x1d\xe8?'
p692
tp693
Rp694
sg14
g4
(g8
S'\x9e\x88\x04\xbf\xf8g\xe8?'
p695
tp696
Rp697
ssS'wgEncodeAwgTfbsBroadK562Ezh239875UniPk'
p698
(dp699
g3
g4
(g8
S'%\xeb\\y@\xb2\xe6?'
p700
tp701
Rp702
sg14
g4
(g8
S'\xc2i\xf1k\x14\x1c\xe7?'
p703
tp704
Rp705
ssS'wgEncodeAwgTfbsUtaHuvecPol2UniPk'
p706
(dp707
g3
g4
(g8
S'\xc2\x05\x0c8Y\x8a\xea?'
p708
tp709
Rp710
sg14
g4
(g8
S'\xfd\xe2\x07[%\xee\xea?'
p711
tp712
Rp713
ssS'wgEncodeAwgTfbsHaibK562Tead4sc101184V0422111UniPk'
p714
(dp715
g3
g4
(g8
S'\xee\x14N\x8f\xf1\x9f\xec?'
p716
tp717
Rp718
sg14
g4
(g8
S'\x02\xc7\xa6d&\xa2\xec?'
p719
tp720
Rp721
ssS'wgEncodeAwgTfbsSydhHelas3Brf2UniPk'
p722
(dp723
g3
g4
(g8
S'\x95RJ)\xa5\x94\xe2?'
p724
tp725
Rp726
sg14
g4
(g8
S'\x8ea\xfbLR\xa4\xe2?'
p727
tp728
Rp729
ssS'wgEncodeAwgTfbsHaibK562Gata2sc267Pcr1xUniPk'
p730
(dp731
g3
g4
(g8
S'\x1d_\x135!\xee\xed?'
p732
tp733
Rp734
sg14
g4
(g8
S'\xe0\x03!\x03\xef<\xee?'
p735
tp736
Rp737
ssS'wgEncodeAwgTfbsSydhK562CfosUniPk'
p738
(dp739
g3
g4
(g8
S'\xa4\x16<\xfc*\xec\xee?'
p740
tp741
Rp742
sg14
g4
(g8
S'\x04A\xaek\xfb\x1d\xef?'
p743
tp744
Rp745
ssS'wgEncodeAwgTfbsSydhHelas3CfosUniPk'
p746
(dp747
g3
g4
(g8
S'\xed\x1d\x93\xe9\x1c\x95\xee?'
p748
tp749
Rp750
sg14
g4
(g8
S'\x90\t\xbb\t\x0b\x9a\xee?'
p751
tp752
Rp753
ssS'wgEncodeAwgTfbsHaibGm12878Pol24h8Pcr1xUniPk'
p754
(dp755
g3
g4
(g8
S'\xc9\x1cu\x84\xd8\xd3\xe8?'
p756
tp757
Rp758
sg14
g4
(g8
S'\xaa\x10wVX\xda\xe8?'
p759
tp760
Rp761
ssS'wgEncodeAwgTfbsHaibA549NrsfV0422111Etoh02UniPk'
p762
(dp763
g3
g4
(g8
S'\xcc\xc1R\xc3\x82~\xea?'
p764
tp765
Rp766
sg14
g4
(g8
S'\xf2b\xc9\xee\xf5\x8f\xea?'
p767
tp768
Rp769
ssS'wgEncodeAwgTfbsHaibHepg2Rad21V0416101UniPk'
p770
(dp771
g3
g4
(g8
S'\xfcY5\xfb\xeb%\xed?'
p772
tp773
Rp774
sg14
g4
(g8
S'\n\x11\xa4\x0c\xdc\xca\xee?'
p775
tp776
Rp777
ssS'wgEncodeAwgTfbsSydhH1hescBach1sc14700IggrabUniPk'
p778
(dp779
g3
g4
(g8
S'\xd2O\x95\x89p1\xec?'
p780
tp781
Rp782
sg14
g4
(g8
S'\x1b\xdc\xaa(#}\xec?'
p783
tp784
Rp785
ssS'wgEncodeAwgTfbsBroadNhdfadCtcfUniPk'
p786
(dp787
g3
g4
(g8
S'\x98\xec\x0fIE\x1d\xee?'
p788
tp789
Rp790
sg14
g4
(g8
S'\x83L\xa8\xb0\x894\xef?'
p791
tp792
Rp793
ssS'wgEncodeAwgTfbsUwAg10803CtcfUniPk'
p794
(dp795
g3
g4
(g8
S'\x88\xd5\x8f\xae\xbd!\xee?'
p796
tp797
Rp798
sg14
g4
(g8
S'\x84<F\x9f\x95=\xef?'
p799
tp800
Rp801
ssS'wgEncodeAwgTfbsUtaMcf7CtcfSerumstimUniPk'
p802
(dp803
g3
g4
(g8
S'\xee\x1f\xb2N\x03\xd1\xec?'
p804
tp805
Rp806
sg14
g4
(g8
S'\xbcu\x9a\xacsD\xee?'
p807
tp808
Rp809
ssS'wgEncodeAwgTfbsSydhK562Ccnt2UniPk'
p810
(dp811
g3
g4
(g8
S'4\xefw\x03-\xc9\xea?'
p812
tp813
Rp814
sg14
g4
(g8
S'\xc7\n\xf8a\x9f\x80\xea?'
p815
tp816
Rp817
ssS'wgEncodeAwgTfbsUwSaecCtcfUniPk'
p818
(dp819
g3
g4
(g8
S'h\x91\xe2M\xec+\xee?'
p820
tp821
Rp822
sg14
g4
(g8
S'`\xafo\x18\xd6K\xef?'
p823
tp824
Rp825
ssS'wgEncodeAwgTfbsSydhGm12878Chd1a301218aIggmusUniPk'
p826
(dp827
g3
g4
(g8
S'\x92b\x9e\x13AH\xe7?'
p828
tp829
Rp830
sg14
g4
(g8
S'}2G\x03qp\xe7?'
p831
tp832
Rp833
ssS'wgEncodeAwgTfbsSydhGm15510NfkbTnfaIggrabUniPk'
p834
(dp835
g3
g4
(g8
S'\xc8\xb2\xa5\x89\xacL\xea?'
p836
tp837
Rp838
sg14
g4
(g8
S'\xae\xd9\xf9\x813\xe8\xe9?'
p839
tp840
Rp841
ssS'wgEncodeAwgTfbsSydhGm12878JundUniPk'
p842
(dp843
g3
g4
(g8
S'\xc2s\xfcKl\x01\xee?'
p844
tp845
Rp846
sg14
g4
(g8
S'f0\x11\x00\x02i\xee?'
p847
tp848
Rp849
ssS'wgEncodeAwgTfbsSydhK562Gata2UcdUniPk'
p850
(dp851
g3
g4
(g8
S'\xe6\xcc\xfa\xa9\x1c\x98\xed?'
p852
tp853
Rp854
sg14
g4
(g8
S'\xea\x078*\xcd\xc1\xed?'
p855
tp856
Rp857
ssS'wgEncodeAwgTfbsHaibT47dEraaV0416102Bpa1hUniPk'
p858
(dp859
g3
g4
(g8
S'\x80\xd7S\x96\x89\xe4\xeb?'
p860
tp861
Rp862
sg14
g4
(g8
S'}M\xaf\xd6\x15\xf2\xec?'
p863
tp864
Rp865
ssS'wgEncodeAwgTfbsSydhK562Bach1sc14700IggrabUniPk'
p866
(dp867
g3
g4
(g8
S'J\xb9N\x97<\x9f\xed?'
p868
tp869
Rp870
sg14
g4
(g8
S'.6\x13zM\xd3\xed?'
p871
tp872
Rp873
ssS'wgEncodeAwgTfbsHaibGm12892Pax5c20V0416101UniPk'
p874
(dp875
g3
g4
(g8
S'\xaa\xd1\x8dl\x94:\xea?'
p876
tp877
Rp878
sg14
g4
(g8
S'\xbc\xf7\xf2>\xab\xef\xea?'
p879
tp880
Rp881
ssS'wgEncodeAwgTfbsHaibH1hescFosl1sc183V0416102UniPk'
p882
(dp883
g3
g4
(g8
S'd\xee\x90\xb9C\xc6\xe9?'
p884
tp885
Rp886
sg14
g4
(g8
S'\xf3<\xcf\xf3<\x8f\xe8?'
p887
tp888
Rp889
ssS'wgEncodeAwgTfbsHaibGm12878Egr1Pcr2xUniPk'
p890
(dp891
g3
g4
(g8
S'9EG\x85.\xb9\xec?'
p892
tp893
Rp894
sg14
g4
(g8
S'\xfag\xe5\xd9k\xc4\xec?'
p895
tp896
Rp897
ssS'wgEncodeAwgTfbsHaibPfsk1Taf1V0416101UniPk'
p898
(dp899
g3
g4
(g8
S'\x97\xfd\x93\xef\xdcR\xea?'
p900
tp901
Rp902
sg14
g4
(g8
S'0m\x86-\xfe\xfb\xea?'
p903
tp904
Rp905
ssS'wgEncodeAwgTfbsSydhH1hescSuz12UcdUniPk'
p906
(dp907
g3
g4
(g8
S'\xc9)\xd0(XU\xe9?'
p908
tp909
Rp910
sg14
g4
(g8
S'\xeb\xd0SJ\x95\xa8\xe9?'
p911
tp912
Rp913
ssS'wgEncodeAwgTfbsHaibH1hescSp1Pcr1xUniPk'
p914
(dp915
g3
g4
(g8
S'G&*B\xac\x10\xeb?'
p916
tp917
Rp918
sg14
g4
(g8
S'&\xe7\x1b\x85\x8d:\xeb?'
p919
tp920
Rp921
ssS'wgEncodeAwgTfbsBroadK562Phf8a301772aUniPk'
p922
(dp923
g3
g4
(g8
S"\t\xc9'\x8b\xb9\x8e\xe9?"
p924
tp925
Rp926
sg14
g4
(g8
S'\xe8\xccPJ\x0eh\xe9?'
p927
tp928
Rp929
ssS'wgEncodeAwgTfbsHaibGm12878Atf2sc81188V0422111UniPk'
p930
(dp931
g3
g4
(g8
S'$1\x11\xd2\xb4\xa0\xeb?'
p932
tp933
Rp934
sg14
g4
(g8
S'\xcb\xef\x95\xc7\x85\xde\xeb?'
p935
tp936
Rp937
ssS'wgEncodeAwgTfbsSydhK562CmycIfna6hUniPk'
p938
(dp939
g3
g4
(g8
S'f\xfab\xbc!\xec\xea?'
p940
tp941
Rp942
sg14
g4
(g8
S'\xc7[aD=\x9c\xea?'
p943
tp944
Rp945
ssS'wgEncodeAwgTfbsHaibPfsk1NrsfPcr2xUniPk'
p946
(dp947
g3
g4
(g8
S'\xe4h\x98\x82\t\xdd\xec?'
p948
tp949
Rp950
sg14
g4
(g8
S'P\xe3\xfb\x08?E\xed?'
p951
tp952
Rp953
ssS'wgEncodeAwgTfbsHaibA549Zbtb33V0422111Etoh02UniPk'
p954
(dp955
g3
g4
(g8
S'\xba\x830f\x1c\xff\xe9?'
p956
tp957
Rp958
sg14
g4
(g8
S'._\xb1W\x02\x06\xea?'
p959
tp960
Rp961
ssS'wgEncodeAwgTfbsUtaK562Pol2UniPk'
p962
(dp963
g3
g4
(g8
S'd\xf7\x83\xc9i\xa2\xe9?'
p964
tp965
Rp966
sg14
g4
(g8
S"_\xa55U\xd3'\xea?"
p967
tp968
Rp969
ssS'wgEncodeAwgTfbsSydhHelas3Brf1UniPk'
p970
(dp971
g3
g4
(g8
S'\xb4\xe5*iT[\xe6?'
p972
tp973
Rp974
sg14
g4
(g8
S'j\xcbU\xd2\xa8\xb6\xe4?'
p975
tp976
Rp977
ssS'wgEncodeAwgTfbsSydhHepg2Mazab85725IggrabUniPk'
p978
(dp979
g3
g4
(g8
S'w\x86\xbc\x88\xcf\xda\xea?'
p980
tp981
Rp982
sg14
g4
(g8
S'\x96\x1f\x9c\xff\xacl\xeb?'
p983
tp984
Rp985
ssS'wgEncodeAwgTfbsSydhHepg2Corestsc30189IggrabUniPk'
p986
(dp987
g3
g4
(g8
S'\xf3\xc3\xbd^\x90\xcb\xe8?'
p988
tp989
Rp990
sg14
g4
(g8
S'\xbe\xc3\xf9U]&\xe9?'
p991
tp992
Rp993
ssS'wgEncodeAwgTfbsUwAg09309CtcfUniPk'
p994
(dp995
g3
g4
(g8
S'?\x0c\xdbh\x0b9\xee?'
p996
tp997
Rp998
sg14
g4
(g8
S'(\x9f\x07\x9a\xf6;\xef?'
p999
tp1000
Rp1001
ssS'wgEncodeAwgTfbsBroadHelas3Pol2bUniPk'
p1002
(dp1003
g3
g4
(g8
S'h\xeb!\xf6_t\xe7?'
p1004
tp1005
Rp1006
sg14
g4
(g8
S'\xde+\xfe\x96\xea\x8f\xe8?'
p1007
tp1008
Rp1009
ssS'wgEncodeAwgTfbsSydhMcf10aesCfosEtoh01HvdUniPk'
p1010
(dp1011
g3
g4
(g8
S'\xbf\xc6\xd3\xccS\xf7\xee?'
p1012
tp1013
Rp1014
sg14
g4
(g8
S')V\x9a\x94\xd0\xee\xee?'
p1015
tp1016
Rp1017
ssS'wgEncodeAwgTfbsSydhK562Rfx5IggrabUniPk'
p1018
(dp1019
g3
g4
(g8
S'\xba\x1a\x9b\x00\x99F\xea?'
p1020
tp1021
Rp1022
sg14
g4
(g8
S'\x1b\xa0\xfa\xb7\xf9\xa3\xe9?'
p1023
tp1024
Rp1025
ssS'wgEncodeAwgTfbsHaibGm12878Mef2aPcr1xUniPk'
p1026
(dp1027
g3
g4
(g8
S'\x82\x01\xad\x92\xd3C\xec?'
p1028
tp1029
Rp1030
sg14
g4
(g8
S'9\xb0t\x92\x03\xcb\xec?'
p1031
tp1032
Rp1033
ssS'wgEncodeAwgTfbsBroadDnd41Ezh239875UniPk'
p1034
(dp1035
g3
g4
(g8
S'\xa2\n\xbd=\xdb\xe6\xe7?'
p1036
tp1037
Rp1038
sg14
g4
(g8
S'\xf3-\xdc\xab\x03\x89\xe8?'
p1039
tp1040
Rp1041
ssS'wgEncodeAwgTfbsSydhHepg2Pol2ForsklnUniPk'
p1042
(dp1043
g3
g4
(g8
S'>}B\x80I\xcd\xe9?'
p1044
tp1045
Rp1046
sg14
g4
(g8
S'\x18.\xe0|\xdf\x96\xe9?'
p1047
tp1048
Rp1049
ssS'wgEncodeAwgTfbsHaibHepg2Sin3ak20Pcr1xUniPk'
p1050
(dp1051
g3
g4
(g8
S'6\xbd\xa1\x19\x0f\x81\xea?'
p1052
tp1053
Rp1054
sg14
g4
(g8
S'\x17!\xa3!\x90\xa9\xea?'
p1055
tp1056
Rp1057
ssS'wgEncodeAwgTfbsHaibK562Pmlsc71910V0422111UniPk'
p1058
(dp1059
g3
g4
(g8
S'\x0c\xf0\xa26\x7f\xc3\xea?'
p1060
tp1061
Rp1062
sg14
g4
(g8
S'\x0c\x14\xf4\xb8\xeb\xc3\xea?'
p1063
tp1064
Rp1065
ssS'wgEncodeAwgTfbsSydhK562Arid3asc8821IggrabUniPk'
p1066
(dp1067
g3
g4
(g8
S'\x0f\xef\xd0X\xd1\x87\xea?'
p1068
tp1069
Rp1070
sg14
g4
(g8
S'\xa2\x10\x80:\\\xec\xea?'
p1071
tp1072
Rp1073
ssS'wgEncodeAwgTfbsSydhHelas3Znf143IggrabUniPk'
p1074
(dp1075
g3
g4
(g8
S'<\x8d#\xb7\xc55\xeb?'
p1076
tp1077
Rp1078
sg14
g4
(g8
S'\x19~8\x0e\x16O\xec?'
p1079
tp1080
Rp1081
ssS'wgEncodeAwgTfbsHaibHepg2Mybl2sc81192V0422111UniPk'
p1082
(dp1083
g3
g4
(g8
S'8\xa7\xa6c\xc8\xb6\xe9?'
p1084
tp1085
Rp1086
sg14
g4
(g8
S'\xba\x9a\xfa\xf2\xe3\x1d\xea?'
p1087
tp1088
Rp1089
ssS'wgEncodeAwgTfbsUtaHepg2CtcfUniPk'
p1090
(dp1091
g3
g4
(g8
S'\x13k"\x12A\x80\xee?'
p1092
tp1093
Rp1094
sg14
g4
(g8
S'\xcc\xb5\xd3\xbat\xae\xef?'
p1095
tp1096
Rp1097
ssS'wgEncodeAwgTfbsHaibGm12878NrsfPcr1xUniPk'
p1098
(dp1099
g3
g4
(g8
S'\xd2go\xd2K|\xec?'
p1100
tp1101
Rp1102
sg14
g4
(g8
S'\xbc\xe3\xc0;\x0e\xbc\xec?'
p1103
tp1104
Rp1105
ssS'wgEncodeAwgTfbsSydhGm12878Corestsc30189IggmusUniPk'
p1106
(dp1107
g3
g4
(g8
S'\xb6\xe8lY@\xd0\xe8?'
p1108
tp1109
Rp1110
sg14
g4
(g8
S'\xfd\x8d\xff\x86g\x1c\xe9?'
p1111
tp1112
Rp1113
ssS'wgEncodeAwgTfbsSydhK562Nrf1IggrabUniPk'
p1114
(dp1115
g3
g4
(g8
S'\xe9\xd1\x19\x12Rh\xee?'
p1116
tp1117
Rp1118
sg14
g4
(g8
S'xh\x10y\xf3~\xee?'
p1119
tp1120
Rp1121
ssS'wgEncodeAwgTfbsSydhGm12878Brca1a300IggmusUniPk'
p1122
(dp1123
g3
g4
(g8
S'\xd2*\xbbT\x13\xad\xee?'
p1124
tp1125
Rp1126
sg14
g4
(g8
S'\xb8\xe4\x1em\x84K\xee?'
p1127
tp1128
Rp1129
ssS'wgEncodeAwgTfbsUwGm12878CtcfUniPk'
p1130
(dp1131
g3
g4
(g8
S'\xa1W\\2\x95/\xee?'
p1132
tp1133
Rp1134
sg14
g4
(g8
S'Rb\xe09&F\xef?'
p1135
tp1136
Rp1137
ssS'wgEncodeAwgTfbsUtaGm19238CtcfUniPk'
p1138
(dp1139
g3
g4
(g8
S'\xb9\x87\xbdmQ\xea\xec?'
p1140
tp1141
Rp1142
sg14
g4
(g8
S'|~\xb9m\xf4S\xee?'
p1143
tp1144
Rp1145
ssS'wgEncodeAwgTfbsHaibK562CtcfcPcr1xUniPk'
p1146
(dp1147
g3
g4
(g8
S'\x92\xf1\xea\xd6L\x03\xee?'
p1148
tp1149
Rp1150
sg14
g4
(g8
S'j \x06\xa798\xef?'
p1151
tp1152
Rp1153
ssS'wgEncodeAwgTfbsHaibA549GrPcr1xDex500pmUniPk'
p1154
(dp1155
g3
g4
(g8
S'ru"Yqm\xe9?'
p1156
tp1157
Rp1158
sg14
g4
(g8
S'"\xaf\x03\xd5\x05@\xea?'
p1159
tp1160
Rp1161
ssS'wgEncodeAwgTfbsHaibHelas3Taf1Pcr1xUniPk'
p1162
(dp1163
g3
g4
(g8
S'\xad\x92\x88\xb7F\x1e\xea?'
p1164
tp1165
Rp1166
sg14
g4
(g8
S'*N!L\xb2\x04\xea?'
p1167
tp1168
Rp1169
ssS'wgEncodeAwgTfbsSydhGm12878Nrf1IggmusUniPk'
p1170
(dp1171
g3
g4
(g8
S'X\xb7\xaa\xdfF\x7f\xed?'
p1172
tp1173
Rp1174
sg14
g4
(g8
S'\x7f\xb2v\x02\xb9\x9b\xed?'
p1175
tp1176
Rp1177
ssS'wgEncodeAwgTfbsHaibT47dEralphaaV0416102Est10nm1hUniPk'
p1178
(dp1179
g3
g4
(g8
S'\xad\xc3q\x1d\xe4,\xec?'
p1180
tp1181
Rp1182
sg14
g4
(g8
S'\xb0\xa0x:\x08\xda\xec?'
p1183
tp1184
Rp1185
ssS'wgEncodeAwgTfbsSydhK562CmycIfng30UniPk'
p1186
(dp1187
g3
g4
(g8
S'Fn\x00d\xcaw\xeb?'
p1188
tp1189
Rp1190
sg14
g4
(g8
S':g\xd2\xf2o\xc3\xeb?'
p1191
tp1192
Rp1193
ssS'wgEncodeAwgTfbsSydhHelas3CebpbIggrabUniPk'
p1194
(dp1195
g3
g4
(g8
S'\xc2\xfb\x04\xbb\x01\xeb\xed?'
p1196
tp1197
Rp1198
sg14
g4
(g8
S'\xdd\xbd\x87\x02Y\x1b\xee?'
p1199
tp1200
Rp1201
ssS'wgEncodeAwgTfbsHaibEcc1Foxa1sc6553V0416102Dm002p1hUniPk'
p1202
(dp1203
g3
g4
(g8
S'\xc2\xdf\x0f\x00m\xc0\xec?'
p1204
tp1205
Rp1206
sg14
g4
(g8
S'\xa0\xa1\xe5\xb27a\xed?'
p1207
tp1208
Rp1209
ssS'wgEncodeAwgTfbsSydhImr90Pol2IggrabUniPk'
p1210
(dp1211
g3
g4
(g8
S'BA\xc0|\xa2p\xe9?'
p1212
tp1213
Rp1214
sg14
g4
(g8
S'\xe5$Wq\x91\xad\xe9?'
p1215
tp1216
Rp1217
ssS'wgEncodeAwgTfbsUwWerirb1CtcfUniPk'
p1218
(dp1219
g3
g4
(g8
S'\x89\xe3\xe6\xdd+\xf3\xed?'
p1220
tp1221
Rp1222
sg14
g4
(g8
S"\xb6'\xc4\x88gP\xef?"
p1223
tp1224
Rp1225
ssS'wgEncodeAwgTfbsHaibEcc1Pol2V0416102Dm002p1hUniPk'
p1226
(dp1227
g3
g4
(g8
S'\x91\x81\x08\x01vk\xea?'
p1228
tp1229
Rp1230
sg14
g4
(g8
S'\xca\x82\\\xb4\xbf8\xea?'
p1231
tp1232
Rp1233
ssS'wgEncodeAwgTfbsHaibA549Usf1Pcr1xDex100nmUniPk'
p1234
(dp1235
g3
g4
(g8
S'\x9ay\xf8\x92y\xce\xec?'
p1236
tp1237
Rp1238
sg14
g4
(g8
S'N\xcf\xe0v\xa4\xb5\xec?'
p1239
tp1240
Rp1241
ssS'wgEncodeAwgTfbsHaibHepg2Ctcfsc5916V0416101UniPk'
p1242
(dp1243
g3
g4
(g8
S"\xfc\xbf'_]\x06\xee?"
p1244
tp1245
Rp1246
sg14
g4
(g8
S"'\x011[vw\xef?"
p1247
tp1248
Rp1249
ssS'wgEncodeAwgTfbsSydhMcf10aesCmycTam14hHvdUniPk'
p1250
(dp1251
g3
g4
(g8
S'w\xd3\x87\x0b\xe8\xf5\xec?'
p1252
tp1253
Rp1254
sg14
g4
(g8
S'\xbc\xb9\x94\xb2*\x02\xed?'
p1255
tp1256
Rp1257
ssS'wgEncodeAwgTfbsSydhH1hescBrca1IggrabUniPk'
p1258
(dp1259
g3
g4
(g8
S'h\x87J+\xfd\x89\xea?'
p1260
tp1261
Rp1262
sg14
g4
(g8
S',\xc4`\xc8\xb9m\xea?'
p1263
tp1264
Rp1265
ssS'wgEncodeAwgTfbsSydhHelas3Chd2IggrabUniPk'
p1266
(dp1267
g3
g4
(g8
S'*\x19A\x1e\xb8\xda\xeb?'
p1268
tp1269
Rp1270
sg14
g4
(g8
S'\xa4\x82]4;\xa2\xeb?'
p1271
tp1272
Rp1273
ssS'wgEncodeAwgTfbsSydhHepg2Pol2IggrabUniPk'
p1274
(dp1275
g3
g4
(g8
S'x\xe5\xdf\xa8B\x1f\xe9?'
p1276
tp1277
Rp1278
sg14
g4
(g8
S'\xcf2(\x19~\x07\xe9?'
p1279
tp1280
Rp1281
ssS'wgEncodeAwgTfbsUwHeeCtcfUniPk'
p1282
(dp1283
g3
g4
(g8
S'[\xdb\x82\x1eb1\xee?'
p1284
tp1285
Rp1286
sg14
g4
(g8
S'\xfb\xf1\xa4"@+\xef?'
p1287
tp1288
Rp1289
ssS'wgEncodeAwgTfbsHaibHepg2NrsfPcr2xUniPk'
p1290
(dp1291
g3
g4
(g8
S'\xd3\xd7U,\xd7\x08\xec?'
p1292
tp1293
Rp1294
sg14
g4
(g8
S'\xad\x0bH\xd1\xdf\xba\xec?'
p1295
tp1296
Rp1297
ssS'wgEncodeAwgTfbsSydhGm18951Pol2IggmusUniPk'
p1298
(dp1299
g3
g4
(g8
S'_\xd0$\xdf\x99\xb1\xe9?'
p1300
tp1301
Rp1302
sg14
g4
(g8
S'\x0e\x16\x1c\xc6\xc3 \xea?'
p1303
tp1304
Rp1305
ssS'wgEncodeAwgTfbsSydhH1hescMafkIggrabUniPk'
p1306
(dp1307
g3
g4
(g8
S'\\$-\xee\xca_\xee?'
p1308
tp1309
Rp1310
sg14
g4
(g8
S'F^\x1f;L\xed\xee?'
p1311
tp1312
Rp1313
ssS'wgEncodeAwgTfbsHaibK562Yy1V0416102UniPk'
p1314
(dp1315
g3
g4
(g8
S'S\xe0:y\xc5\xe6\xec?'
p1316
tp1317
Rp1318
sg14
g4
(g8
S'\x82\xf3p\xb7s\xef\xec?'
p1319
tp1320
Rp1321
ssS'wgEncodeAwgTfbsBroadK562Hdac6a301341aUniPk'
p1322
(dp1323
g3
g4
(g8
S'\x84rsV\xff\x1f\xe6?'
p1324
tp1325
Rp1326
sg14
g4
(g8
S'\xe6pa\xdc\xe8\xfd\xe4?'
p1327
tp1328
Rp1329
ssS'wgEncodeAwgTfbsSydhK562Ubfsc13125IggmusUniPk'
p1330
(dp1331
g3
g4
(g8
S'\xe1W\xee\xee\xfc\xc2\xea?'
p1332
tp1333
Rp1334
sg14
g4
(g8
S"'\xd4@\x0c\xdaP\xeb?"
p1335
tp1336
Rp1337
ssS'wgEncodeAwgTfbsSydhK562Pol2s2UniPk'
p1338
(dp1339
g3
g4
(g8
S'\xe5*\xd2,cL\xe5?'
p1340
tp1341
Rp1342
sg14
g4
(g8
S'f3\xbe\x1d\x1c\x8a\xe5?'
p1343
tp1344
Rp1345
ssS'wgEncodeAwgTfbsHaibH1hescSrfPcr1xUniPk'
p1346
(dp1347
g3
g4
(g8
S'\x95\xb4R\x19O\x08\xed?'
p1348
tp1349
Rp1350
sg14
g4
(g8
S'\x88\xefS\xb3y\xcf\xed?'
p1351
tp1352
Rp1353
ssS'wgEncodeAwgTfbsSydhHek293Tcf7l2UcdUniPk'
p1354
(dp1355
g3
g4
(g8
S'\xc0q\xc2\xd4=\x15\xeb?'
p1356
tp1357
Rp1358
sg14
g4
(g8
S'L\xc1\xa5=9y\xeb?'
p1359
tp1360
Rp1361
ssS'wgEncodeAwgTfbsHaibHepg2Foxa1sc6553V0416101UniPk'
p1362
(dp1363
g3
g4
(g8
S'\x1a\xac\x01k\xa9L\xee?'
p1364
tp1365
Rp1366
sg14
g4
(g8
S'\x05\xd0\xf0\x9b\x98\\\xee?'
p1367
tp1368
Rp1369
ssS'wgEncodeAwgTfbsUwHffmycCtcfUniPk'
p1370
(dp1371
g3
g4
(g8
S'\xfc6\xb5)\xc7\xfe\xed?'
p1372
tp1373
Rp1374
sg14
g4
(g8
S'\xc82\x89\x8d\x8b\x12\xef?'
p1375
tp1376
Rp1377
ssS'wgEncodeAwgTfbsHaibGm12878Stat5asc74442V0422111UniPk'
p1378
(dp1379
g3
g4
(g8
S'\xe2\t\xa8Wo%\xea?'
p1380
tp1381
Rp1382
sg14
g4
(g8
S'\x94D\x0c\x1cvu\xea?'
p1383
tp1384
Rp1385
ssS'wgEncodeAwgTfbsHaibK562Sin3ak20V0416101UniPk'
p1386
(dp1387
g3
g4
(g8
S'G\xddO\xdc\xff\x08\xeb?'
p1388
tp1389
Rp1390
sg14
g4
(g8
S'J4.\x14_\xd5\xea?'
p1391
tp1392
Rp1393
ssS'wgEncodeAwgTfbsHaibH1hescCtcfsc5916V0416102UniPk'
p1394
(dp1395
g3
g4
(g8
S'p\x1311\xcd\x0e\xee?'
p1396
tp1397
Rp1398
sg14
g4
(g8
S"\x95\xa8'/5V\xef?"
p1399
tp1400
Rp1401
ssS'wgEncodeAwgTfbsUtaGlioblaPol2UniPk'
p1402
(dp1403
g3
g4
(g8
S'\x08[|Gi\xdf\xe9?'
p1404
tp1405
Rp1406
sg14
g4
(g8
S'\x02:\xe4M\x97\x1c\xea?'
p1407
tp1408
Rp1409
ssS'wgEncodeAwgTfbsHaibH1hescUsf1Pcr1xUniPk'
p1410
(dp1411
g3
g4
(g8
S'\xf8=GZ\xf3`\xef?'
p1412
tp1413
Rp1414
sg14
g4
(g8
S'4\xe2m`\x8dj\xef?'
p1415
tp1416
Rp1417
ssS'wgEncodeAwgTfbsSydhGm12891NfkbTnfaIggrabUniPk'
p1418
(dp1419
g3
g4
(g8
S'0\xef\xbb\xa4M-\xec?'
p1420
tp1421
Rp1422
sg14
g4
(g8
S'\xf2\x06\xd8\xce\x18 \xec?'
p1423
tp1424
Rp1425
ssS'wgEncodeAwgTfbsSydhHepg2Brca1a300IggrabUniPk'
p1426
(dp1427
g3
g4
(g8
S'w\xad\xe4\xb2\x01\x9c\xea?'
p1428
tp1429
Rp1430
sg14
g4
(g8
S'W\x9c?|g\x9f\xea?'
p1431
tp1432
Rp1433
ssS'wgEncodeAwgTfbsSydhA549Rad21IggrabUniPk'
p1434
(dp1435
g3
g4
(g8
S'\xeb\xdf\xc9\xcb\xaaq\xee?'
p1436
tp1437
Rp1438
sg14
g4
(g8
S'\x1f=\xda\xe7\xbec\xef?'
p1439
tp1440
Rp1441
ssS'wgEncodeAwgTfbsHaibK562Cbx3sc101004V0422111UniPk'
p1442
(dp1443
g3
g4
(g8
S'\xa1\x96\x0e\xfd\xfd\xda\xe9?'
p1444
tp1445
Rp1446
sg14
g4
(g8
S'\x8a\xd8c^7\x18\xea?'
p1447
tp1448
Rp1449
ssS'wgEncodeAwgTfbsHaibH1hescTcf12Pcr1xUniPk'
p1450
(dp1451
g3
g4
(g8
S'(\x82\xbb\x14\xc7h\xec?'
p1452
tp1453
Rp1454
sg14
g4
(g8
S'I\xa5\x9e.\xf0\xa0\xec?'
p1455
tp1456
Rp1457
ssS'wgEncodeAwgTfbsSydhK562Smc3ab9263IggrabUniPk'
p1458
(dp1459
g3
g4
(g8
S'R\xf9s:\x88C\xee?'
p1460
tp1461
Rp1462
sg14
g4
(g8
S'!<\x0f\x9f$C\xef?'
p1463
tp1464
Rp1465
ssS'wgEncodeAwgTfbsHaibHuvecPol2Pcr1xUniPk'
p1466
(dp1467
g3
g4
(g8
S'\x84\xe4\x83\xbf\x02\x97\xe9?'
p1468
tp1469
Rp1470
sg14
g4
(g8
S'\xbb\xd8\xb8?\xfb\xde\xe9?'
p1471
tp1472
Rp1473
ssS'wgEncodeAwgTfbsUtaHepg2Pol2UniPk'
p1474
(dp1475
g3
g4
(g8
S'\xc5r\x06\x1c{\x15\xe9?'
p1476
tp1477
Rp1478
sg14
g4
(g8
S'\x1f\xb1\x9f\x92\r\xa8\xe9?'
p1479
tp1480
Rp1481
ssS'wgEncodeAwgTfbsHaibH1hescJundV0416102UniPk'
p1482
(dp1483
g3
g4
(g8
S'|i\xac\x0c\xd8@\xeb?'
p1484
tp1485
Rp1486
sg14
g4
(g8
S'\x0002\xb7\xa1\x80\xeb?'
p1487
tp1488
Rp1489
ssS'wgEncodeAwgTfbsSydhHelas3Mxi1af4185IggrabUniPk'
p1490
(dp1491
g3
g4
(g8
S'F\x8e L\xdb\xef\xea?'
p1492
tp1493
Rp1494
sg14
g4
(g8
S'[\xd3z\x87M\xdc\xea?'
p1495
tp1496
Rp1497
ssS'wgEncodeAwgTfbsHaibA549GrPcr2xDex100nmUniPk'
p1498
(dp1499
g3
g4
(g8
S'\xab\xef\xce&l\xe3\xeb?'
p1500
tp1501
Rp1502
sg14
g4
(g8
S'\xfb\xcf\x86\x8dH@\xec?'
p1503
tp1504
Rp1505
ssS'wgEncodeAwgTfbsSydhGm19193Pol2IggmusUniPk'
p1506
(dp1507
g3
g4
(g8
S'P"\xf5\x8c)k\xe9?'
p1508
tp1509
Rp1510
sg14
g4
(g8
S'}\xdf\x07\xf5\x80 \xe9?'
p1511
tp1512
Rp1513
ssS'wgEncodeAwgTfbsSydhK562NfybUniPk'
p1514
(dp1515
g3
g4
(g8
S'\xb6T+\xbfd;\xef?'
p1516
tp1517
Rp1518
sg14
g4
(g8
S'1Z~<\xa1f\xef?'
p1519
tp1520
Rp1521
ssS'wgEncodeAwgTfbsHaibHepg2Bhlhe40V0416101UniPk'
p1522
(dp1523
g3
g4
(g8
S"9\xa5y\xf1'\x12\xee?"
p1524
tp1525
Rp1526
sg14
g4
(g8
S'\xe0u\xa4\xcf\xb6$\xee?'
p1527
tp1528
Rp1529
ssS'wgEncodeAwgTfbsSydhGm12878Pol3UniPk'
p1530
(dp1531
g3
g4
(g8
S'J\x13\xd7\x81\xeau\xed?'
p1532
tp1533
Rp1534
sg14
g4
(g8
S'\x0eO\xd5%\x1dn\xec?'
p1535
tp1536
Rp1537
ssS'wgEncodeAwgTfbsSydhK562Tblr1ab24550IggrabUniPk'
p1538
(dp1539
g3
g4
(g8
S'u\x13\x13r\x0b\xde\xe8?'
p1540
tp1541
Rp1542
sg14
g4
(g8
S'>\x7f\xd5\xb3V\xf7\xe8?'
p1543
tp1544
Rp1545
ssS'wgEncodeAwgTfbsHaibA549Yy1cV0422111Etoh02UniPk'
p1546
(dp1547
g3
g4
(g8
S'\xe2@\xb9\x05\xd8v\xeb?'
p1548
tp1549
Rp1550
sg14
g4
(g8
S'p\xfdr\x8b\xf9\xd6\xeb?'
p1551
tp1552
Rp1553
ssS'wgEncodeAwgTfbsHaibK562SrfV0416101UniPk'
p1554
(dp1555
g3
g4
(g8
S'\t\xcb\x974I\xd8\xeb?'
p1556
tp1557
Rp1558
sg14
g4
(g8
S'f\xa8\xeb\xc9\xe2\t\xec?'
p1559
tp1560
Rp1561
ssS'wgEncodeAwgTfbsHaibGm12878GabpPcr2xUniPk'
p1562
(dp1563
g3
g4
(g8
S'\xb4C\xf9\xc9\xc5\x06\xed?'
p1564
tp1565
Rp1566
sg14
g4
(g8
S'C\xb8O\x93\x87\x18\xed?'
p1567
tp1568
Rp1569
ssS'wgEncodeAwgTfbsSydhHepg2Srebp1InslnUniPk'
p1570
(dp1571
g3
g4
(g8
S'\x97$@w\xe5\xc1\xea?'
p1572
tp1573
Rp1574
sg14
g4
(g8
S'\xe2j{\x9c\xdeb\xeb?'
p1575
tp1576
Rp1577
ssS'wgEncodeAwgTfbsSydhK562Znf274m01UcdUniPk'
p1578
(dp1579
g3
g4
(g8
S'\xf1\xb1\xc3\x07b\x91\xe9?'
p1580
tp1581
Rp1582
sg14
g4
(g8
S'\\\x18\x99\x06U\xac\xe9?'
p1583
tp1584
Rp1585
ssS'wgEncodeAwgTfbsSydhHepg2Mafksc477IggrabUniPk'
p1586
(dp1587
g3
g4
(g8
S'\xf0U\x0b\x93\xfa\x84\xee?'
p1588
tp1589
Rp1590
sg14
g4
(g8
S'\xef\x8e\xe0C\xe0p\xef?'
p1591
tp1592
Rp1593
ssS'wgEncodeAwgTfbsSydhHepg2Mafkab50322IggrabUniPk'
p1594
(dp1595
g3
g4
(g8
S'\xe7\xe2s\xdf\x08\x93\xee?'
p1596
tp1597
Rp1598
sg14
g4
(g8
S'|\x93\x14B\xfd\x87\xef?'
p1599
tp1600
Rp1601
ssS'wgEncodeAwgTfbsHaibK562Nr2f2sc271940V0422111UniPk'
p1602
(dp1603
g3
g4
(g8
S'\xf8\xcfQ\xf9\xcei\xec?'
p1604
tp1605
Rp1606
sg14
g4
(g8
S'\xb5\x83T\xdf\x95u\xec?'
p1607
tp1608
Rp1609
ssS'wgEncodeAwgTfbsSydhHek293Kap1UcdUniPk'
p1610
(dp1611
g3
g4
(g8
S'\xb4\xcc1\x08\x1b@\xe8?'
p1612
tp1613
Rp1614
sg14
g4
(g8
S'JL<r$j\xe8?'
p1615
tp1616
Rp1617
ssS'wgEncodeAwgTfbsSydhGm19193NfkbTnfaIggrabUniPk'
p1618
(dp1619
g3
g4
(g8
S'U\x85aE\x03\xa6\xec?'
p1620
tp1621
Rp1622
sg14
g4
(g8
S'NI\xd1\x0f\x89\xf5\xec?'
p1623
tp1624
Rp1625
ssS'wgEncodeAwgTfbsHaibSknshTaf1V0416101UniPk'
p1626
(dp1627
g3
g4
(g8
S'\x9e\xe35\xc8!\x13\xeb?'
p1628
tp1629
Rp1630
sg14
g4
(g8
S'L\xe4\x1c\xfe\x05_\xeb?'
p1631
tp1632
Rp1633
ssS'wgEncodeAwgTfbsSydhK562CjunIfna30UniPk'
p1634
(dp1635
g3
g4
(g8
S'@~\x93\x90\x8aW\xed?'
p1636
tp1637
Rp1638
sg14
g4
(g8
S'\xa4\xc5\xa3k${\xed?'
p1639
tp1640
Rp1641
ssS'wgEncodeAwgTfbsBroadOsteoblCtcfUniPk'
p1642
(dp1643
g3
g4
(g8
S'Y\x86\x9a1\xe6\xa0\xed?'
p1644
tp1645
Rp1646
sg14
g4
(g8
S'\tB\x1b\x8f\x93\x81\xee?'
p1647
tp1648
Rp1649
ssS'wgEncodeAwgTfbsSydhHepg2Hsf1ForsklnUniPk'
p1650
(dp1651
g3
g4
(g8
S'\x1c\x07\x86!\xed\xcf\xec?'
p1652
tp1653
Rp1654
sg14
g4
(g8
S'\x8e@G8\xb86\xed?'
p1655
tp1656
Rp1657
ssS'wgEncodeAwgTfbsSydhNb4Pol2UniPk'
p1658
(dp1659
g3
g4
(g8
S'w\x08\xb7\xe4\xb7\xd1\xe9?'
p1660
tp1661
Rp1662
sg14
g4
(g8
S'\xbe\xa4+y\x14\x13\xea?'
p1663
tp1664
Rp1665
ssS'wgEncodeAwgTfbsHaibHepg2GabpPcr2xUniPk'
p1666
(dp1667
g3
g4
(g8
S'\x8b\xabg\x9a\x93\x90\xec?'
p1668
tp1669
Rp1670
sg14
g4
(g8
S'\xd6\xcf\xb2\xa4~\x81\xec?'
p1671
tp1672
Rp1673
ssS'wgEncodeAwgTfbsHaibK562Sp2sc643V0416102UniPk'
p1674
(dp1675
g3
g4
(g8
S'\x1fWEu\x7f\xc5\xec?'
p1676
tp1677
Rp1678
sg14
g4
(g8
S'"\x84z\xe5\'\x01\xed?'
p1679
tp1680
Rp1681
ssS'wgEncodeAwgTfbsSydhGm12878Ikzf1iknuclaUniPk'
p1682
(dp1683
g3
g4
(g8
S'\x1d\x176\xff\xadt\xea?'
p1684
tp1685
Rp1686
sg14
g4
(g8
S"\xfe'\xa4\xf7Qz\xea?"
p1687
tp1688
Rp1689
ssS'wgEncodeAwgTfbsSydhK562Atf3UniPk'
p1690
(dp1691
g3
g4
(g8
S'\x8e\xa3\xa5\xdb8Z\xec?'
p1692
tp1693
Rp1694
sg14
g4
(g8
S'\xb3\xf8\xc29\x8b/\xec?'
p1695
tp1696
Rp1697
ssS'wgEncodeAwgTfbsHaibA549P300V0422111Etoh02UniPk'
p1698
(dp1699
g3
g4
(g8
S'TP\xb4\xeeg\xac\xeb?'
p1700
tp1701
Rp1702
sg14
g4
(g8
S'?\xbc\x16\x93\xca\x8e\xeb?'
p1703
tp1704
Rp1705
ssS'wgEncodeAwgTfbsSydhHelas3Corestsc30189IggrabUniPk'
p1706
(dp1707
g3
g4
(g8
S'\xd7\xbd\x83\xff9\xa7\xea?'
p1708
tp1709
Rp1710
sg14
g4
(g8
S'\x92\xa0^+v\xe8\xea?'
p1711
tp1712
Rp1713
ssS'wgEncodeAwgTfbsSydhK562NelfeUniPk'
p1714
(dp1715
g3
g4
(g8
S'\x11\x9d\x08\x0c\r\xa5\xe5?'
p1716
tp1717
Rp1718
sg14
g4
(g8
S'\xe7\x14?\xf6H\xc0\xe2?'
p1719
tp1720
Rp1721
ssS'wgEncodeAwgTfbsSydhK562Hmgn3UniPk'
p1722
(dp1723
g3
g4
(g8
S'\x92V\x94\xceR1\xea?'
p1724
tp1725
Rp1726
sg14
g4
(g8
S'\xcc\xad\x04\xac\xad7\xea?'
p1727
tp1728
Rp1729
ssS'wgEncodeAwgTfbsSydhK562Pol2Ifna30UniPk'
p1730
(dp1731
g3
g4
(g8
S'j\xd0oo\rP\xe9?'
p1732
tp1733
Rp1734
sg14
g4
(g8
S'\xad\xc8c\xdd\x95\xab\xe9?'
p1735
tp1736
Rp1737
ssS'wgEncodeAwgTfbsSydhK562Gtf2f1ab28179IggrabUniPk'
p1738
(dp1739
g3
g4
(g8
S'\x895j?\xb0\xe9\xe8?'
p1740
tp1741
Rp1742
sg14
g4
(g8
S'\x01r\xeb\xa3q\x9d\xe9?'
p1743
tp1744
Rp1745
ssS'wgEncodeAwgTfbsHaibK562Taf7sc101167V0416101UniPk'
p1746
(dp1747
g3
g4
(g8
S'H\x01\x9b\xdey\xd9\xe7?'
p1748
tp1749
Rp1750
sg14
g4
(g8
S'\x9a\xb9\xc47d\x9e\xe8?'
p1751
tp1752
Rp1753
ssS'wgEncodeAwgTfbsBroadH1hescJarid1aab26049UniPk'
p1754
(dp1755
g3
g4
(g8
S'h=\xf3\x0f\xec\xd8\xe9?'
p1756
tp1757
Rp1758
sg14
g4
(g8
S'\xedV\xd37:w\xe9?'
p1759
tp1760
Rp1761
ssS'wgEncodeAwgTfbsUwGm12865CtcfUniPk'
p1762
(dp1763
g3
g4
(g8
S'Z\xb9\x13\xabd\x10\xee?'
p1764
tp1765
Rp1766
sg14
g4
(g8
S'm\x83\x11c\x07<\xef?'
p1767
tp1768
Rp1769
ssS'wgEncodeAwgTfbsSydhHelas3NfybIggrabUniPk'
p1770
(dp1771
g3
g4
(g8
S'\xd0x\x1f\xda\xb7\xa9\xed?'
p1772
tp1773
Rp1774
sg14
g4
(g8
S'Q\xb5\xf0\xa1\xeb\xba\xed?'
p1775
tp1776
Rp1777
ssS'wgEncodeAwgTfbsSydhMcf7Gata3UcdUniPk'
p1778
(dp1779
g3
g4
(g8
S'\x07l1\x84\xd0\xcd\xe9?'
p1780
tp1781
Rp1782
sg14
g4
(g8
S'\xf2\xe3\xa7\xfcU\x9e\xe9?'
p1783
tp1784
Rp1785
ssS'wgEncodeAwgTfbsHaibSknshraP300V0416102UniPk'
p1786
(dp1787
g3
g4
(g8
S'A\xb6\xc5\x90G=\xec?'
p1788
tp1789
Rp1790
sg14
g4
(g8
S'^\x8f\x1a\x9e\xb4\xfe\xeb?'
p1791
tp1792
Rp1793
ssS'wgEncodeAwgTfbsUchicagoK562EfosUniPk'
p1794
(dp1795
g3
g4
(g8
S'\x95\x1e\xd3ea\xe5\xee?'
p1796
tp1797
Rp1798
sg14
g4
(g8
S'$2Am@\xf3\xee?'
p1799
tp1800
Rp1801
ssS'wgEncodeAwgTfbsUwHpafCtcfUniPk'
p1802
(dp1803
g3
g4
(g8
S'\x9aW\x98\xbe\xbe\x1a\xee?'
p1804
tp1805
Rp1806
sg14
g4
(g8
S'\xaf\x94\xf8\xb3\xf7G\xef?'
p1807
tp1808
Rp1809
ssS'wgEncodeAwgTfbsBroadK562Hdac2a300705aUniPk'
p1810
(dp1811
g3
g4
(g8
S'\xbc\x0fW;\xc2\xa4\xe8?'
p1812
tp1813
Rp1814
sg14
g4
(g8
S"\xc5k'r\x1a\x19\xe9?"
p1815
tp1816
Rp1817
ssS'wgEncodeAwgTfbsHaibH1hescP300V0416102UniPk'
p1818
(dp1819
g3
g4
(g8
S'M1I\xc8\x92\xa5\xea?'
p1820
tp1821
Rp1822
sg14
g4
(g8
S'\xf1\xeed\xb6.\xe5\xea?'
p1823
tp1824
Rp1825
ssS'wgEncodeAwgTfbsSydhHepg2Bhlhe40cIggrabUniPk'
p1826
(dp1827
g3
g4
(g8
S':\x80n\x81\xdaZ\xec?'
p1828
tp1829
Rp1830
sg14
g4
(g8
S'\xb3\xdf26Xt\xec?'
p1831
tp1832
Rp1833
ssS'wgEncodeAwgTfbsSydhHepg2Pgc1aForsklnUniPk'
p1834
(dp1835
g3
g4
(g8
S'\x98\xa6K\xac\xd0v\xe7?'
p1836
tp1837
Rp1838
sg14
g4
(g8
S'\xf6\x98\xe7.\xcb\xd0\xe6?'
p1839
tp1840
Rp1841
ssS'wgEncodeAwgTfbsHaibGm12878Nfatc1sc17834V0422111UniPk'
p1842
(dp1843
g3
g4
(g8
S'q\xc31 \x83\xf9\xea?'
p1844
tp1845
Rp1846
sg14
g4
(g8
S',\xa3\xb5\x02\xc6\xde\xea?'
p1847
tp1848
Rp1849
ssS'wgEncodeAwgTfbsUtaGm19239CtcfUniPk'
p1850
(dp1851
g3
g4
(g8
S'\x0f\xf4\x06\xa1 =\xed?'
p1852
tp1853
Rp1854
sg14
g4
(g8
S'$\x93\xadE\x8e\x9f\xee?'
p1855
tp1856
Rp1857
ssS'wgEncodeAwgTfbsUwHrpeCtcfUniPk'
p1858
(dp1859
g3
g4
(g8
S'\x8f\x0e\xb8H\xe29\xee?'
p1860
tp1861
Rp1862
sg14
g4
(g8
S'\xea\xdd\xbb\x9f\nb\xef?'
p1863
tp1864
Rp1865
ssS'wgEncodeAwgTfbsSydhH1hescCtbp2UcdUniPk'
p1866
(dp1867
g3
g4
(g8
S'\xad\x1a\xb0\x8a@\x89\xe9?'
p1868
tp1869
Rp1870
sg14
g4
(g8
S'\xfc\xca6\xc3\xfcx\xe9?'
p1871
tp1872
Rp1873
ssS'wgEncodeAwgTfbsSydhGm12878CfosUniPk'
p1874
(dp1875
g3
g4
(g8
S'\t\xba,\xf8]\x01\xef?'
p1876
tp1877
Rp1878
sg14
g4
(g8
S'x\x93\x14\x05\xdc\xf5\xee?'
p1879
tp1880
Rp1881
ssS'wgEncodeAwgTfbsUchicagoK562EjunbUniPk'
p1882
(dp1883
g3
g4
(g8
S'\x8c\x8a\xfc$Po\xed?'
p1884
tp1885
Rp1886
sg14
g4
(g8
S'O`+\x11s7\xed?'
p1887
tp1888
Rp1889
ssS'wgEncodeAwgTfbsSydhHelas3P300sc584sc584IggrabUniPk'
p1890
(dp1891
g3
g4
(g8
S'\xdd\xdf\x1f)_*\xed?'
p1892
tp1893
Rp1894
sg14
g4
(g8
S'\xb0\xb0\xffm\x89>\xed?'
p1895
tp1896
Rp1897
ssS'wgEncodeAwgTfbsHaibGm12878Rad21V0416101UniPk'
p1898
(dp1899
g3
g4
(g8
S'\x8e.\nT]\xde\xed?'
p1900
tp1901
Rp1902
sg14
g4
(g8
S'\x10\t\xaa\x91\x8e\xe6\xee?'
p1903
tp1904
Rp1905
ssS'wgEncodeAwgTfbsSydhHelas3Smc3ab9263IggrabUniPk'
p1906
(dp1907
g3
g4
(g8
S'\xc1\xf5t\xcf=\xf2\xec?'
p1908
tp1909
Rp1910
sg14
g4
(g8
S'\xd7\xdf\x86\x16\xd7\x17\xee?'
p1911
tp1912
Rp1913
ssS'wgEncodeAwgTfbsSydhH1hescCebpbIggrabUniPk'
p1914
(dp1915
g3
g4
(g8
S'\xdc\xc9#\xdd\xa2\x02\xef?'
p1916
tp1917
Rp1918
sg14
g4
(g8
S'\xc0\xaap\r\xd5L\xef?'
p1919
tp1920
Rp1921
ssS'wgEncodeAwgTfbsHaibGm12878Bcl11aPcr1xUniPk'
p1922
(dp1923
g3
g4
(g8
S'9|\xf7\xea@\xb8\xec?'
p1924
tp1925
Rp1926
sg14
g4
(g8
S'\x04\xda\xd8`\xf40\xed?'
p1927
tp1928
Rp1929
ssS'wgEncodeAwgTfbsSydhGm12892Pol2IggmusUniPk'
p1930
(dp1931
g3
g4
(g8
S'\xde\xf3\xe3@\xa3\xe9\xe9?'
p1932
tp1933
Rp1934
sg14
g4
(g8
S'\xd3\x15H\x067\x10\xea?'
p1935
tp1936
Rp1937
ssS'wgEncodeAwgTfbsUwA549CtcfUniPk'
p1938
(dp1939
g3
g4
(g8
S'\x03il\x08}&\xee?'
p1940
tp1941
Rp1942
sg14
g4
(g8
S'\x85\xa9\x04I\xc85\xef?'
p1943
tp1944
Rp1945
ssS'wgEncodeAwgTfbsBroadK562CtcfUniPk'
p1946
(dp1947
g3
g4
(g8
S'\\M\xd1\xa8#:\xed?'
p1948
tp1949
Rp1950
sg14
g4
(g8
S'\x10\x1e\xa5\xb9\xdc.\xee?'
p1951
tp1952
Rp1953
ssS'wgEncodeAwgTfbsSydhHelas3Nrf1IggmusUniPk'
p1954
(dp1955
g3
g4
(g8
S'Z\xc3Jjd\x97\xee?'
p1956
tp1957
Rp1958
sg14
g4
(g8
S'\x8d\x80v\x91\x8a\xc9\xee?'
p1959
tp1960
Rp1961
ssS'wgEncodeAwgTfbsSydhK562Usf2IggrabUniPk'
p1962
(dp1963
g3
g4
(g8
S'\xc2\xa5gV\xb2Z\xee?'
p1964
tp1965
Rp1966
sg14
g4
(g8
S'\x89\xdd{\xb7\xe9m\xee?'
p1967
tp1968
Rp1969
ssS'wgEncodeAwgTfbsHaibGm12878Pbx3Pcr1xUniPk'
p1970
(dp1971
g3
g4
(g8
S'\xa68<\x06\xb3!\xec?'
p1972
tp1973
Rp1974
sg14
g4
(g8
S'\xa4Dv\x10}j\xec?'
p1975
tp1976
Rp1977
ssS'wgEncodeAwgTfbsSydhHelas3CjunIggrabUniPk'
p1978
(dp1979
g3
g4
(g8
S'\xca8OR\xc6@\xee?'
p1980
tp1981
Rp1982
sg14
g4
(g8
S'\xb2\xfc\xf3\xe7LL\xee?'
p1983
tp1984
Rp1985
ssS'wgEncodeAwgTfbsHaibPanc1Pol24h8V0416101UniPk'
p1986
(dp1987
g3
g4
(g8
S'\xba9\x08\xb1\x97\xe2\xe8?'
p1988
tp1989
Rp1990
sg14
g4
(g8
S'\xbe{\x14Z\xaa\x96\xe9?'
p1991
tp1992
Rp1993
ssS'wgEncodeAwgTfbsSydhHelas3CmycUniPk'
p1994
(dp1995
g3
g4
(g8
S'W\x02\xe2\xbf\x9e2\xeb?'
p1996
tp1997
Rp1998
sg14
g4
(g8
S'1\xbd\x04\x19\x9b\xe7\xeb?'
p1999
tp2000
Rp2001
ssS'wgEncodeAwgTfbsUwMcf7CtcfUniPk'
p2002
(dp2003
g3
g4
(g8
S'\x1eE\x12\x9el\x13\xee?'
p2004
tp2005
Rp2006
sg14
g4
(g8
S'\xbdBEE\xb9C\xef?'
p2007
tp2008
Rp2009
ssS'wgEncodeAwgTfbsUtaGm19240CtcfUniPk'
p2010
(dp2011
g3
g4
(g8
S'\x0e\xf0\x85\x0b\xbcF\xed?'
p2012
tp2013
Rp2014
sg14
g4
(g8
S'g\xe5\xfauv\xb7\xee?'
p2015
tp2016
Rp2017
ssS'wgEncodeAwgTfbsHaibGm12878Tcf3Pcr1xUniPk'
p2018
(dp2019
g3
g4
(g8
S'\x03\x8b\x9e\xf3Z\xfb\xeb?'
p2020
tp2021
Rp2022
sg14
g4
(g8
S'zzB\x1c\x85\x0e\xec?'
p2023
tp2024
Rp2025
ssS'wgEncodeAwgTfbsSydhK562Pol2UniPk'
p2026
(dp2027
g3
g4
(g8
S'q\x91\xb4?\x97\xe5\xe9?'
p2028
tp2029
Rp2030
sg14
g4
(g8
S'\xdb\x1bwL\x99\xf1\xe9?'
p2031
tp2032
Rp2033
ssS'wgEncodeAwgTfbsSydhHelas3Znf274UcdUniPk'
p2034
(dp2035
g3
g4
(g8
S'k(\xaf\xa1\xbc\x86\xee?'
p2036
tp2037
Rp2038
sg14
g4
(g8
S'5\x94\xd7P^C\xeb?'
p2039
tp2040
Rp2041
ssS'wgEncodeAwgTfbsSydhGm12878Pol2s2IggmusUniPk'
p2042
(dp2043
g3
g4
(g8
S'\xc7\xfb\n}T\xa4\xe8?'
p2044
tp2045
Rp2046
sg14
g4
(g8
S'\x07%\xb3\xb9>\xed\xe8?'
p2047
tp2048
Rp2049
ssS'wgEncodeAwgTfbsHaibK562Mef2aV0416101UniPk'
p2050
(dp2051
g3
g4
(g8
S'\xd0\xd3\x86\x9e\xe5?\xec?'
p2052
tp2053
Rp2054
sg14
g4
(g8
S"\x1fr[\xf1'\x89\xec?"
p2055
tp2056
Rp2057
ssS'wgEncodeAwgTfbsUwHcpeCtcfUniPk'
p2058
(dp2059
g3
g4
(g8
S'\x06\xbc\xc85\x11\xf3\xed?'
p2060
tp2061
Rp2062
sg14
g4
(g8
S'\x9aP\t_$6\xef?'
p2063
tp2064
Rp2065
ssS'wgEncodeAwgTfbsSydhK562Tal1sc12984IggmusUniPk'
p2066
(dp2067
g3
g4
(g8
S'\xe73]\xcdR\xe3\xed?'
p2068
tp2069
Rp2070
sg14
g4
(g8
S'\xd3\xce\xc9crK\xee?'
p2071
tp2072
Rp2073
ssS'wgEncodeAwgTfbsSydhHelas3Prdm19115IggrabUniPk'
p2074
(dp2075
g3
g4
(g8
S'V\x8c\x11\x00\xfeh\xed?'
p2076
tp2077
Rp2078
sg14
g4
(g8
S'\x8c\xdf\xddFX\xa5\xed?'
p2079
tp2080
Rp2081
ssS'wgEncodeAwgTfbsSydhGm18526Pol2IggmusUniPk'
p2082
(dp2083
g3
g4
(g8
S'\xc7\xc0\xaet\x03\xab\xe9?'
p2084
tp2085
Rp2086
sg14
g4
(g8
S'2IDE\x02"\xea?'
p2087
tp2088
Rp2089
ssS'wgEncodeAwgTfbsUtaGm12878CmycUniPk'
p2090
(dp2091
g3
g4
(g8
S'{,\xa1=\x0c\xc0\xe8?'
p2092
tp2093
Rp2094
sg14
g4
(g8
S'\xe0\xe6Q\xfd*\x1f\xe9?'
p2095
tp2096
Rp2097
ssS'wgEncodeAwgTfbsSydhShsy5yGata3sc269sc269UcdUniPk'
p2098
(dp2099
g3
g4
(g8
S'.\xa4\xa8\xc1\x18\x0e\xec?'
p2100
tp2101
Rp2102
sg14
g4
(g8
S'\x05";\x0c^.\xec?'
p2103
tp2104
Rp2105
ssS'wgEncodeAwgTfbsHaibGm12878Pmlsc71910V0422111UniPk'
p2106
(dp2107
g3
g4
(g8
S'$\xad\xe4\xff\xbcB\xe9?'
p2108
tp2109
Rp2110
sg14
g4
(g8
S'Hyf\tO\xd7\xe9?'
p2111
tp2112
Rp2113
ssS'wgEncodeAwgTfbsHaibH1hescTaf7sc101167V0416102UniPk'
p2114
(dp2115
g3
g4
(g8
S'\x1a\xb8X\xd71\x9b\xe9?'
p2116
tp2117
Rp2118
sg14
g4
(g8
S'7\xbd\xeeo\xc0\xe8\xe9?'
p2119
tp2120
Rp2121
ssS'wgEncodeAwgTfbsUtaH1hescCmycUniPk'
p2122
(dp2123
g3
g4
(g8
S'n\xb8\x85e\xe2\xb3\xe6?'
p2124
tp2125
Rp2126
sg14
g4
(g8
S'\x91\xfa\x17\xbb(1\xe5?'
p2127
tp2128
Rp2129
ssS'wgEncodeAwgTfbsUtaMcf7CtcfUniPk'
p2130
(dp2131
g3
g4
(g8
S'\xf9\x99\x90\xc6\x8fM\xed?'
p2132
tp2133
Rp2134
sg14
g4
(g8
S'NdT\x83D\xb0\xee?'
p2135
tp2136
Rp2137
ssS'wgEncodeAwgTfbsSydhImr90CebpbIggrabUniPk'
p2138
(dp2139
g3
g4
(g8
S'\x86\xb8\x15Tx\xa1\xee?'
p2140
tp2141
Rp2142
sg14
g4
(g8
S'\xc9\xa4N\x002\xf8\xee?'
p2143
tp2144
Rp2145
ssS'wgEncodeAwgTfbsHaibH1hescYy1sc281V0416102UniPk'
p2146
(dp2147
g3
g4
(g8
S'{J\x8d+\xf2\xef\xec?'
p2148
tp2149
Rp2150
sg14
g4
(g8
S'\xc2\xc1\x19\x154>\xed?'
p2151
tp2152
Rp2153
ssS'wgEncodeAwgTfbsUtaH1hescCtcfUniPk'
p2154
(dp2155
g3
g4
(g8
S',\x0f.^\x92X\xed?'
p2156
tp2157
Rp2158
sg14
g4
(g8
S'\xd6\xc3G"D\x08\xef?'
p2159
tp2160
Rp2161
ssS'wgEncodeAwgTfbsSydhK562CjunIfna6hUniPk'
p2162
(dp2163
g3
g4
(g8
S'\x92\xfb^\xbb\xbaF\xee?'
p2164
tp2165
Rp2166
sg14
g4
(g8
S'\xdbU\x03\xb7\xba8\xee?'
p2167
tp2168
Rp2169
ssS'wgEncodeAwgTfbsHaibK562NrsfV0416102UniPk'
p2170
(dp2171
g3
g4
(g8
S'\x80>5\x94\x08\x8b\xec?'
p2172
tp2173
Rp2174
sg14
g4
(g8
S'\xb3\xfd\xc2\xe5\xce\xa8\xec?'
p2175
tp2176
Rp2177
ssS'wgEncodeAwgTfbsSydhHelas3Zkscan1hpa006672IggrabUniPk'
p2178
(dp2179
g3
g4
(g8
S'\xc8\x0eo\x88\xda\x98\xea?'
p2180
tp2181
Rp2182
sg14
g4
(g8
S'\xd3\xa8\x97\xd8\xd7\xbe\xea?'
p2183
tp2184
Rp2185
ssS'wgEncodeAwgTfbsHaibHelas3GabpPcr1xUniPk'
p2186
(dp2187
g3
g4
(g8
S'\\\xae\x1f@$\x98\xed?'
p2188
tp2189
Rp2190
sg14
g4
(g8
S'\x14crl\xa0\x99\xed?'
p2191
tp2192
Rp2193
ssS'wgEncodeAwgTfbsSydhMcf7Znf217UcdUniPk'
p2194
(dp2195
g3
g4
(g8
S'\xb1Z\x7f}@\x1a\xea?'
p2196
tp2197
Rp2198
sg14
g4
(g8
S'r\xda\x81\x9dtK\xea?'
p2199
tp2200
Rp2201
ssS'wgEncodeAwgTfbsSydhK562Znf143IggrabUniPk'
p2202
(dp2203
g3
g4
(g8
S'\xf8\x1fP!y\xb1\xec?'
p2204
tp2205
Rp2206
sg14
g4
(g8
S'\xa3\xde\xa5\xf8r\xc4\xed?'
p2207
tp2208
Rp2209
ssS'wgEncodeAwgTfbsSydhHepg2Chd2ab68301IggrabUniPk'
p2210
(dp2211
g3
g4
(g8
S'\xf8,\xef#(\x9f\xea?'
p2212
tp2213
Rp2214
sg14
g4
(g8
S'3Y\x0c\xf6r5\xeb?'
p2215
tp2216
Rp2217
ssS'wgEncodeAwgTfbsSydhHelas3Elk4UcdUniPk'
p2218
(dp2219
g3
g4
(g8
S'\xc5HoI\x8ey\xec?'
p2220
tp2221
Rp2222
sg14
g4
(g8
S'Z\xe7$ \xb8X\xec?'
p2223
tp2224
Rp2225
ssS'wgEncodeAwgTfbsHaibGm12878RxraPcr1xUniPk'
p2226
(dp2227
g3
g4
(g8
S'\xee\xbf\xcf\xb1\xd0h\xe8?'
p2228
tp2229
Rp2230
sg14
g4
(g8
S'\x8c\x18X\x82\x0b\xe1\xe7?'
p2231
tp2232
Rp2233
ssS'wgEncodeAwgTfbsBroadH1hescEzh239875UniPk'
p2234
(dp2235
g3
g4
(g8
S'\x9d\xa3|\xdd\xfc\x07\xe9?'
p2236
tp2237
Rp2238
sg14
g4
(g8
S'\xe6@S\xce/\xc6\xe9?'
p2239
tp2240
Rp2241
ssS'wgEncodeAwgTfbsHaibK562Bcl3Pcr1xUniPk'
p2242
(dp2243
g3
g4
(g8
S'\xf4\xb6\xdb\xdc}\xfb\xe8?'
p2244
tp2245
Rp2246
sg14
g4
(g8
S'm\x19\n\x03\xd6\xfa\xe7?'
p2247
tp2248
Rp2249
ssS'wgEncodeAwgTfbsHaibK562Cebpbsc150V0422111UniPk'
p2250
(dp2251
g3
g4
(g8
S'\xf4\x18\xb2\xad5\xfb\xed?'
p2252
tp2253
Rp2254
sg14
g4
(g8
S'\x97\xa5W\xae;8\xee?'
p2255
tp2256
Rp2257
ssS'wgEncodeAwgTfbsHaibHepg2JundPcr1xUniPk'
p2258
(dp2259
g3
g4
(g8
S'\x88L\x1f\xdf\x19\x07\xed?'
p2260
tp2261
Rp2262
sg14
g4
(g8
S'%\xc5\x11\xd3\xf9\xea\xec?'
p2263
tp2264
Rp2265
ssS'wgEncodeAwgTfbsSydhHepg2Smc3ab9263IggrabUniPk'
p2266
(dp2267
g3
g4
(g8
S'0\x85%\xa0Il\xed?'
p2268
tp2269
Rp2270
sg14
g4
(g8
S'<\x0f2\xb8\\\x85\xee?'
p2271
tp2272
Rp2273
ssS'wgEncodeAwgTfbsHaibGm12892Pol2V0416102UniPk'
p2274
(dp2275
g3
g4
(g8
S'\xb3B\xda:\xdai\xe9?'
p2276
tp2277
Rp2278
sg14
g4
(g8
S'\t)F\xd2\xa0\x05\xe9?'
p2279
tp2280
Rp2281
ssS'wgEncodeAwgTfbsSydhMcf10aesStat3Tam112hHvdUniPk'
p2282
(dp2283
g3
g4
(g8
S'\xee\x08\xce\xb1\xfdH\xee?'
p2284
tp2285
Rp2286
sg14
g4
(g8
S'T\x07\xa6\xb0Gw\xee?'
p2287
tp2288
Rp2289
ssS'wgEncodeAwgTfbsHaibK562Stat5asc74442V0422111UniPk'
p2290
(dp2291
g3
g4
(g8
S'!\xa2\x0cQ\xe9\x01\xed?'
p2292
tp2293
Rp2294
sg14
g4
(g8
S'\xba\xbf\x82k\x86C\xed?'
p2295
tp2296
Rp2297
ssS'wgEncodeAwgTfbsUtaProgfibCtcfUniPk'
p2298
(dp2299
g3
g4
(g8
S'\xb1M\xf0\xbd\x99\xe6\xed?'
p2300
tp2301
Rp2302
sg14
g4
(g8
S'\x92\x11@T\x8f(\xef?'
p2303
tp2304
Rp2305
ssS'wgEncodeAwgTfbsSydhGm12878WhipIggmusUniPk'
p2306
(dp2307
g3
g4
(g8
S'\x02\xbe\xce\x96\xac\xab\xe7?'
p2308
tp2309
Rp2310
sg14
g4
(g8
S'/zY*R\xf4\xe7?'
p2311
tp2312
Rp2313
ssS'wgEncodeAwgTfbsHaibEcc1GrV0416102Dex100nmUniPk'
p2314
(dp2315
g3
g4
(g8
S'\xfeG\xef\xe9\x1e\xcc\xeb?'
p2316
tp2317
Rp2318
sg14
g4
(g8
S'5\xd8\x12\xe5\xc15\xec?'
p2319
tp2320
Rp2321
ssS'wgEncodeAwgTfbsSydhK562Stat2Ifna30UniPk'
p2322
(dp2323
g3
g4
(g8
S'\xc2Q\x7f\r\xd9"\xeb?'
p2324
tp2325
Rp2326
sg14
g4
(g8
S'\x14\xf2u\xdf\xc3(\xeb?'
p2327
tp2328
Rp2329
ssS'wgEncodeAwgTfbsHaibHepg2NrsfV0416101UniPk'
p2330
(dp2331
g3
g4
(g8
S'=\x14Q\xfe7\xfd\xea?'
p2332
tp2333
Rp2334
sg14
g4
(g8
S'\xe0\x18n\x0e\xf9A\xeb?'
p2335
tp2336
Rp2337
ssS'wgEncodeAwgTfbsBroadHmecEzh239875UniPk'
p2338
(dp2339
g3
g4
(g8
S'\x92w\x14\x94\x06Q\xe7?'
p2340
tp2341
Rp2342
sg14
g4
(g8
S'\xc9M\xfd\xb95*\xe8?'
p2343
tp2344
Rp2345
ssS'wgEncodeAwgTfbsBroadHuvecPol2bUniPk'
p2346
(dp2347
g3
g4
(g8
S"\x9a\xd8\xd5\xa7'\x10\xe9?"
p2348
tp2349
Rp2350
sg14
g4
(g8
S'R\x9b\xe6N?*\xe9?'
p2351
tp2352
Rp2353
ssS'wgEncodeAwgTfbsUtaMcf7CtcfEstroUniPk'
p2354
(dp2355
g3
g4
(g8
S'l\x04 \x9a\xfb\xb3\xed?'
p2356
tp2357
Rp2358
sg14
g4
(g8
S'x\xf2\xab-9\x04\xef?'
p2359
tp2360
Rp2361
ssS'wgEncodeAwgTfbsUwGm12873CtcfUniPk'
p2362
(dp2363
g3
g4
(g8
S'\xac\x18\x80S+\x04\xee?'
p2364
tp2365
Rp2366
sg14
g4
(g8
S'\xea8~\x88\xd7\x1b\xef?'
p2367
tp2368
Rp2369
ssS'wgEncodeAwgTfbsHaibA549Pol2Pcr2xEtoh02UniPk'
p2370
(dp2371
g3
g4
(g8
S'tA@\xe9}\xd5\xe9?'
p2372
tp2373
Rp2374
sg14
g4
(g8
S'\xf8\x13\xba\x1d\x9c\xcd\xe9?'
p2375
tp2376
Rp2377
ssS'wgEncodeAwgTfbsSydhHelas3Tcf7l2c9b92565UcdUniPk'
p2378
(dp2379
g3
g4
(g8
S'b~\xee\x8d\xde0\xea?'
p2380
tp2381
Rp2382
sg14
g4
(g8
S'YD!8?\x90\xea?'
p2383
tp2384
Rp2385
ssS'wgEncodeAwgTfbsHaibPfsk1Sin3ak20V0416101UniPk'
p2386
(dp2387
g3
g4
(g8
S'v\xce\x1ck\x12\x98\xea?'
p2388
tp2389
Rp2390
sg14
g4
(g8
S'\x08\x87l\xa7\x8c\x7f\xea?'
p2391
tp2392
Rp2393
ssS'wgEncodeAwgTfbsSydhK562CjunIfng30UniPk'
p2394
(dp2395
g3
g4
(g8
S'\xf4\xf1:\xcc\xca\x0f\xee?'
p2396
tp2397
Rp2398
sg14
g4
(g8
S'\xfdm\xb4\x1b\xc1 \xee?'
p2399
tp2400
Rp2401
ssS'wgEncodeAwgTfbsBroadK562Hdac1sc6298UniPk'
p2402
(dp2403
g3
g4
(g8
S'\xc0\xc9\xe4\xc7\xe5\x1d\xe8?'
p2404
tp2405
Rp2406
sg14
g4
(g8
S'\xd8\xc7\x99/q|\xe8?'
p2407
tp2408
Rp2409
ssS'wgEncodeAwgTfbsUwHcmCtcfUniPk'
p2410
(dp2411
g3
g4
(g8
S'J\xd2:>I\xd6\xed?'
p2412
tp2413
Rp2414
sg14
g4
(g8
S'V\x08]4\x07\xe5\xee?'
p2415
tp2416
Rp2417
ssS'wgEncodeAwgTfbsSydhK562CjunIfng6hUniPk'
p2418
(dp2419
g3
g4
(g8
S'j{\x07\xab\x9a\t\xee?'
p2420
tp2421
Rp2422
sg14
g4
(g8
S'r-\x8e\x88\xf4\x16\xee?'
p2423
tp2424
Rp2425
ssS'wgEncodeAwgTfbsHaibA549Pol2Pcr2xDex100nmUniPk'
p2426
(dp2427
g3
g4
(g8
S'\x7f\xa0\xe7\xfc\x06\xd0\xe9?'
p2428
tp2429
Rp2430
sg14
g4
(g8
S'}\xcd=\xfe\xd4.\xea?'
p2431
tp2432
Rp2433
ssS'wgEncodeAwgTfbsBroadH1hescRbbp5a300109aUniPk'
p2434
(dp2435
g3
g4
(g8
S'\x8cs%k\xc7\xe7\xe8?'
p2436
tp2437
Rp2438
sg14
g4
(g8
S'\x8c\xaa\x8d\x1b@\x86\xe9?'
p2439
tp2440
Rp2441
ssS'wgEncodeAwgTfbsHaibGm12878Mef2csc13268V0416101UniPk'
p2442
(dp2443
g3
g4
(g8
S'\x10\xf8\x9e\xc5\xc7\x15\xec?'
p2444
tp2445
Rp2446
sg14
g4
(g8
S'\xbe\xd1\x8bS\x99\xa7\xec?'
p2447
tp2448
Rp2449
ssS'wgEncodeAwgTfbsSydhK562Chd2ab68301IggrabUniPk'
p2450
(dp2451
g3
g4
(g8
S'\x8a3\x163\x13~\xeb?'
p2452
tp2453
Rp2454
sg14
g4
(g8
S'\x1b\x80\x1f/H\x14\xec?'
p2455
tp2456
Rp2457
ssS'wgEncodeAwgTfbsSydhGm10847Pol2IggmusUniPk'
p2458
(dp2459
g3
g4
(g8
S'\x8b}mBiK\xea?'
p2460
tp2461
Rp2462
sg14
g4
(g8
S'\xbd1\x9d\xdf\xe5y\xea?'
p2463
tp2464
Rp2465
ssS'wgEncodeAwgTfbsSydhK562E2f6UcdUniPk'
p2466
(dp2467
g3
g4
(g8
S'\x11X\xec\xdc\xaf\xea\xea?'
p2468
tp2469
Rp2470
sg14
g4
(g8
S'\x88Lt\xdd\xc5\xf7\xea?'
p2471
tp2472
Rp2473
ssS'wgEncodeAwgTfbsSydhK562Pol2s2IggrabUniPk'
p2474
(dp2475
g3
g4
(g8
S'\xb1\xc3\xccb\x97\xa4\xe7?'
p2476
tp2477
Rp2478
sg14
g4
(g8
S'\xe8_\t\xefQ\xbb\xe7?'
p2479
tp2480
Rp2481
ssS'wgEncodeAwgTfbsHaibPanc1Sin3ak20V0416101UniPk'
p2482
(dp2483
g3
g4
(g8
S'N\x9a\xf7e*\\\xe9?'
p2484
tp2485
Rp2486
sg14
g4
(g8
S'\x95\xf4\x1f\xf2\x0f\xad\xe9?'
p2487
tp2488
Rp2489
ssS'wgEncodeAwgTfbsSydhGm12878Stat1UniPk'
p2490
(dp2491
g3
g4
(g8
S'\xd8\xb20\xd2\xc8@\xe7?'
p2492
tp2493
Rp2494
sg14
g4
(g8
S'\xb4\x91o\x18tK\xe7?'
p2495
tp2496
Rp2497
ssS'wgEncodeAwgTfbsSydhHepg2Mxi1UniPk'
p2498
(dp2499
g3
g4
(g8
S'\xc4/\x9f\x15\xadu\xea?'
p2500
tp2501
Rp2502
sg14
g4
(g8
S'\x02\xad\x9b\xd2X\xde\xea?'
p2503
tp2504
Rp2505
ssS'wgEncodeAwgTfbsSydhGm12878Bhlhe40cIggmusUniPk'
p2506
(dp2507
g3
g4
(g8
S'\xfe\xfbt\x82X\xa3\xec?'
p2508
tp2509
Rp2510
sg14
g4
(g8
S'\xb9\xb5\n\xc2\x03\x9d\xec?'
p2511
tp2512
Rp2513
ssS'wgEncodeAwgTfbsUwGm12801CtcfUniPk'
p2514
(dp2515
g3
g4
(g8
S'#\xe9\xba\xba@c\xee?'
p2516
tp2517
Rp2518
sg14
g4
(g8
S'\xb5\xb2\x1b\xa6<{\xef?'
p2519
tp2520
Rp2521
ssS'wgEncodeAwgTfbsSydhH1hescChd2IggrabUniPk'
p2522
(dp2523
g3
g4
(g8
S'\xa3\xc4\xe0\x04\x9b\xe9\xea?'
p2524
tp2525
Rp2526
sg14
g4
(g8
S'\x12\x85p\x11\x07\r\xeb?'
p2527
tp2528
Rp2529
ssS'wgEncodeAwgTfbsSydhK562Mazab85725IggrabUniPk'
p2530
(dp2531
g3
g4
(g8
S'\x0c1\x82O\x90\xd5\xeb?'
p2532
tp2533
Rp2534
sg14
g4
(g8
S'\x88\xe6\x00\x0f\x9b\xc6\xeb?'
p2535
tp2536
Rp2537
ssS'wgEncodeAwgTfbsBroadK562Pol2bUniPk'
p2538
(dp2539
g3
g4
(g8
S'JPb\xf6\x9f\xfc\xe8?'
p2540
tp2541
Rp2542
sg14
g4
(g8
S'\xbf\x9e\xbeq\x1a\x14\xe9?'
p2543
tp2544
Rp2545
ssS'wgEncodeAwgTfbsBroadNhaCtcfUniPk'
p2546
(dp2547
g3
g4
(g8
S'\x88\r1o3Z\xee?'
p2548
tp2549
Rp2550
sg14
g4
(g8
S'\xeaD\x1b\xbb\xa6=\xef?'
p2551
tp2552
Rp2553
ssS'wgEncodeAwgTfbsHaibSknshraCtcfV0416102UniPk'
p2554
(dp2555
g3
g4
(g8
S'8r\x83\xbfdA\xee?'
p2556
tp2557
Rp2558
sg14
g4
(g8
S'\xcfo$\xdb\xba\x98\xef?'
p2559
tp2560
Rp2561
ssS'wgEncodeAwgTfbsSydhK562Ini1IggmusUniPk'
p2562
(dp2563
g3
g4
(g8
S'\xae[;\xd2\xf7\xa3\xe7?'
p2564
tp2565
Rp2566
sg14
g4
(g8
S"\xc8y'\x1a\xe9}\xe7?"
p2567
tp2568
Rp2569
ssS'wgEncodeAwgTfbsHaibHepg2Pol24h8V0416102UniPk'
p2570
(dp2571
g3
g4
(g8
S'/\xca\xac\n\x02X\xe9?'
p2572
tp2573
Rp2574
sg14
g4
(g8
S'\xd9\x8e\xbc\xf5\x88`\xe9?'
p2575
tp2576
Rp2577
ssS'wgEncodeAwgTfbsSydhGm15510Pol2IggmusUniPk'
p2578
(dp2579
g3
g4
(g8
S'\xb7z\x97H\xb6G\xea?'
p2580
tp2581
Rp2582
sg14
g4
(g8
S'D\xbd\xf2S\xd5V\xea?'
p2583
tp2584
Rp2585
ssS'wgEncodeAwgTfbsSydhHek293Elk4UcdUniPk'
p2586
(dp2587
g3
g4
(g8
S'\xfb\x94P1\xe1\xc3\xe9?'
p2588
tp2589
Rp2590
sg14
g4
(g8
S'0\xaf\xc4\xeb\x8ft\xe9?'
p2591
tp2592
Rp2593
ssS'wgEncodeAwgTfbsSydhHelas3Mazab85725IggrabUniPk'
p2594
(dp2595
g3
g4
(g8
S'+\xfbh\xd7^\x16\xeb?'
p2596
tp2597
Rp2598
sg14
g4
(g8
S'\x83i\xa2\x88\x9e\x16\xeb?'
p2599
tp2600
Rp2601
ssS'wgEncodeAwgTfbsSydhHelas3Irf3IggrabUniPk'
p2602
(dp2603
g3
g4
(g8
S'd\xb4)\x93\x8d)\xed?'
p2604
tp2605
Rp2606
sg14
g4
(g8
S'r5oU\xe9\x1a\xed?'
p2607
tp2608
Rp2609
ssS'wgEncodeAwgTfbsHaibHct116Pol24h8V0416101UniPk'
p2610
(dp2611
g3
g4
(g8
S'\xa5\xb0\xbb|\x1e\x80\xea?'
p2612
tp2613
Rp2614
sg14
g4
(g8
S'\xd4z\x9e\xc7\x14\x1e\xea?'
p2615
tp2616
Rp2617
ssS'wgEncodeAwgTfbsUwGm12874CtcfUniPk'
p2618
(dp2619
g3
g4
(g8
S'\xa8\xd3\xcd\xe1\xe9C\xee?'
p2620
tp2621
Rp2622
sg14
g4
(g8
S'\xc6b\xa5\xe5\xffo\xef?'
p2623
tp2624
Rp2625
ssS'wgEncodeAwgTfbsSydhGm12878P300IggmusUniPk'
p2626
(dp2627
g3
g4
(g8
S'\x91\xc0\xc4CA\xaf\xeb?'
p2628
tp2629
Rp2630
sg14
g4
(g8
S'*\xe8\xb2\x9f\xb4\xaf\xeb?'
p2631
tp2632
Rp2633
ssS'wgEncodeAwgTfbsUwHmecCtcfUniPk'
p2634
(dp2635
g3
g4
(g8
S'\xdbo\n@\xc8\xd3\xed?'
p2636
tp2637
Rp2638
sg14
g4
(g8
S'\x0c\\\x87@41\xef?'
p2639
tp2640
Rp2641
ssS'wgEncodeAwgTfbsHaibA549GrPcr1xDex5nmUniPk'
p2642
(dp2643
g3
g4
(g8
S'|{y\xe3/\x8e\xec?'
p2644
tp2645
Rp2646
sg14
g4
(g8
S'\xac\xb7#\xb5\xd0\x0f\xed?'
p2647
tp2648
Rp2649
ssS'wgEncodeAwgTfbsHaibK562Trim28sc81411V0422111UniPk'
p2650
(dp2651
g3
g4
(g8
S'l\xf35\xfaR\xf5\xea?'
p2652
tp2653
Rp2654
sg14
g4
(g8
S'\xe8nb\x01\xe2\xa2\xea?'
p2655
tp2656
Rp2657
ssS'wgEncodeAwgTfbsHaibGm12878Pou2f2Pcr1xUniPk'
p2658
(dp2659
g3
g4
(g8
S'D\x94/\xccy\xe3\xea?'
p2660
tp2661
Rp2662
sg14
g4
(g8
S'\x91\xc2\xef\xf7"\x1c\xeb?'
p2663
tp2664
Rp2665
ssS'wgEncodeAwgTfbsBroadHmecCtcfUniPk'
p2666
(dp2667
g3
g4
(g8
S'\xdc\xec\x07nj\\\xee?'
p2668
tp2669
Rp2670
sg14
g4
(g8
S'V\x18;6\x9cW\xef?'
p2671
tp2672
Rp2673
ssS'wgEncodeAwgTfbsSydhK562Znf263UcdUniPk'
p2674
(dp2675
g3
g4
(g8
S'\xfc\xb8\xcb\xde\x8a\x86\xeb?'
p2676
tp2677
Rp2678
sg14
g4
(g8
S'\x04\xd1\xa6^\xff\xbc\xeb?'
p2679
tp2680
Rp2681
ssS'wgEncodeAwgTfbsSydhK562Mxi1af4185IggrabUniPk'
p2682
(dp2683
g3
g4
(g8
S'x\xf0o;r?\xeb?'
p2684
tp2685
Rp2686
sg14
g4
(g8
S'on\xf1nv}\xeb?'
p2687
tp2688
Rp2689
ssS'wgEncodeAwgTfbsHaibGm12891Pu1Pcr1xUniPk'
p2690
(dp2691
g3
g4
(g8
S'\x03Y$\x01\x87\x05\xef?'
p2692
tp2693
Rp2694
sg14
g4
(g8
S'\x85e\xd46GQ\xef?'
p2695
tp2696
Rp2697
ssS'wgEncodeAwgTfbsHaibH1hescTead4sc101184V0422111UniPk'
p2698
(dp2699
g3
g4
(g8
S'\xf4X\xa4l\xa6"\xee?'
p2700
tp2701
Rp2702
sg14
g4
(g8
S'\xc0\x9c\xe3W\xfe]\xee?'
p2703
tp2704
Rp2705
ssS'wgEncodeAwgTfbsHaibK562Fosl1sc183V0416101UniPk'
p2706
(dp2707
g3
g4
(g8
S'\xa1\x0e\xf8\xc1\x15\xe0\xee?'
p2708
tp2709
Rp2710
sg14
g4
(g8
S'\x1dz\x15;\xbf\xab\xee?'
p2711
tp2712
Rp2713
ssS'wgEncodeAwgTfbsHaibA549Creb1sc240V0416102Dex100nmUniPk'
p2714
(dp2715
g3
g4
(g8
S'\x8d\xf7\rn?\xad\xeb?'
p2716
tp2717
Rp2718
sg14
g4
(g8
S"\xc8*\xac'\xef\r\xec?"
p2719
tp2720
Rp2721
ssS'wgEncodeAwgTfbsHaibGm12878Zeb1sc25388V0416102UniPk'
p2722
(dp2723
g3
g4
(g8
S'~\xa9\xdb3cI\xeb?'
p2724
tp2725
Rp2726
sg14
g4
(g8
S'\xb8i\x15\x89\xa4Y\xeb?'
p2727
tp2728
Rp2729
ssS'wgEncodeAwgTfbsHaibU87NrsfPcr2xUniPk'
p2730
(dp2731
g3
g4
(g8
S'\x99\x02D\xa1\xcd\x81\xe9?'
p2732
tp2733
Rp2734
sg14
g4
(g8
S'J9\x98\xa1\x98\xc2\xea?'
p2735
tp2736
Rp2737
ssS'wgEncodeAwgTfbsSydhGm12878Stat3IggmusUniPk'
p2738
(dp2739
g3
g4
(g8
S'2\xabb2\t\x14\xe9?'
p2740
tp2741
Rp2742
sg14
g4
(g8
S'\xc78\xec\x81=d\xe9?'
p2743
tp2744
Rp2745
ssS'wgEncodeAwgTfbsSydhHelas3Stat1Ifng30UniPk'
p2746
(dp2747
g3
g4
(g8
S'.#\x8e\xa8\x1fQ\xeb?'
p2748
tp2749
Rp2750
sg14
g4
(g8
S'$\xac\x8b\xb61i\xeb?'
p2751
tp2752
Rp2753
ssS'wgEncodeAwgTfbsSydhImr90CtcfbIggrabUniPk'
p2754
(dp2755
g3
g4
(g8
S'\x02X?\xadf1\xee?'
p2756
tp2757
Rp2758
sg14
g4
(g8
S'>z\xe5C\x11T\xef?'
p2759
tp2760
Rp2761
ssS'wgEncodeAwgTfbsUtaH1hescPol2UniPk'
p2762
(dp2763
g3
g4
(g8
S'\xf0\xbe\x8a\x9d\x0f\xbf\xe9?'
p2764
tp2765
Rp2766
sg14
g4
(g8
S'\x8d\x95x]\x82=\xea?'
p2767
tp2768
Rp2769
ssS'wgEncodeAwgTfbsHaibEcc1EralphaaV0416102Est10nm1hUniPk'
p2770
(dp2771
g3
g4
(g8
S'\xf1\xf3$\x12\x08\xe3\xeb?'
p2772
tp2773
Rp2774
sg14
g4
(g8
S'D\x02\x80\x92y7\xec?'
p2775
tp2776
Rp2777
ssS'wgEncodeAwgTfbsBroadHsmmtEzh239875UniPk'
p2778
(dp2779
g3
g4
(g8
S'\xf8\xfb\xdc\xb0q\xe5\xe7?'
p2780
tp2781
Rp2782
sg14
g4
(g8
S'"Lg\x80\xa9U\xe8?'
p2783
tp2784
Rp2785
ssS'wgEncodeAwgTfbsSydhK562Setdb1MnasedUcdUniPk'
p2786
(dp2787
g3
g4
(g8
S'P#Z\x86\xbah\xe7?'
p2788
tp2789
Rp2790
sg14
g4
(g8
S'\xb0\xae@\xa4\xea\xc6\xe6?'
p2791
tp2792
Rp2793
ssS'wgEncodeAwgTfbsSydhGm12878Rfx5200401194IggmusUniPk'
p2794
(dp2795
g3
g4
(g8
S'\xde\x91\xc83\xe7\x05\xeb?'
p2796
tp2797
Rp2798
sg14
g4
(g8
S'\xea@\xb9>\x96\n\xeb?'
p2799
tp2800
Rp2801
ssS'wgEncodeAwgTfbsSydhK562Nfe2UniPk'
p2802
(dp2803
g3
g4
(g8
S'\xd8\x11*\xf3\xa7\xd0\xee?'
p2804
tp2805
Rp2806
sg14
g4
(g8
S'\xcb\xb7\xbc\x8c\x12T\xef?'
p2807
tp2808
Rp2809
ssS'wgEncodeAwgTfbsHaibSknmcPol24h8V0416101UniPk'
p2810
(dp2811
g3
g4
(g8
S'uB\x16.\x8d]\xea?'
p2812
tp2813
Rp2814
sg14
g4
(g8
S'\x02\xd6\x19\xcd\xb7n\xea?'
p2815
tp2816
Rp2817
ssS'wgEncodeAwgTfbsSydhHelas3Stat3IggrabUniPk'
p2818
(dp2819
g3
g4
(g8
S'qjky\x10\x81\xec?'
p2820
tp2821
Rp2822
sg14
g4
(g8
S'\xa4\xca\xe30xy\xec?'
p2823
tp2824
Rp2825
ssS'wgEncodeAwgTfbsUtaMcf7CmycSerumstvdUniPk'
p2826
(dp2827
g3
g4
(g8
S'r\xac\x19\x84%\xc9\xe9?'
p2828
tp2829
Rp2830
sg14
g4
(g8
S'\xd7\xfe\xc0\xdbsV\xea?'
p2831
tp2832
Rp2833
ssS'wgEncodeAwgTfbsSydhHepg2Znf274UcdUniPk'
p2834
(dp2835
g3
g4
(g8
S'PT|\x8bK\xc9\xee?'
p2836
tp2837
Rp2838
sg14
g4
(g8
S'\x81\xd7\x02\x94\x07\xe0\xee?'
p2839
tp2840
Rp2841
ssS'wgEncodeAwgTfbsBroadH1hescCtcfUniPk'
p2842
(dp2843
g3
g4
(g8
S'\x0f]i\xcfO\xdb\xed?'
p2844
tp2845
Rp2846
sg14
g4
(g8
S'\x07\x02\x00\xcc\x85\x1a\xef?'
p2847
tp2848
Rp2849
ssS'wgEncodeAwgTfbsHaibGm12878Pax5c20Pcr1xUniPk'
p2850
(dp2851
g3
g4
(g8
S'\x04l\xd4\xfcjb\xeb?'
p2852
tp2853
Rp2854
sg14
g4
(g8
S'\xb6\x8c\x01\xd4\x88\x1b\xec?'
p2855
tp2856
Rp2857
ssS'wgEncodeAwgTfbsUwGm06990CtcfUniPk'
p2858
(dp2859
g3
g4
(g8
S'e\x0e\x9c\xcd\x84A\xee?'
p2860
tp2861
Rp2862
sg14
g4
(g8
S'uQ!\x97\xdc<\xef?'
p2863
tp2864
Rp2865
ssS'wgEncodeAwgTfbsSydhMcf10aesStat3TamUniPk'
p2866
(dp2867
g3
g4
(g8
S'(\x8e~\x8b\x07\x8c\xee?'
p2868
tp2869
Rp2870
sg14
g4
(g8
S'X\x17\xf4\xb9*\x92\xee?'
p2871
tp2872
Rp2873
ssS'wgEncodeAwgTfbsHaibGm12878Bclaf101388V0416101UniPk'
p2874
(dp2875
g3
g4
(g8
S'\xbe\x8e\xc8t\tp\xe9?'
p2876
tp2877
Rp2878
sg14
g4
(g8
S'y 4\x96p\xc5\xe9?'
p2879
tp2880
Rp2881
ssS'wgEncodeAwgTfbsHaibK562GabpV0416101UniPk'
p2882
(dp2883
g3
g4
(g8
S'T\xe4UE%\xf5\xec?'
p2884
tp2885
Rp2886
sg14
g4
(g8
S'\xda\x89\xf9]\x97\xe6\xec?'
p2887
tp2888
Rp2889
ssS'wgEncodeAwgTfbsUwBe2cCtcfUniPk'
p2890
(dp2891
g3
g4
(g8
S'\xfd;\x8a\xa8C/\xee?'
p2892
tp2893
Rp2894
sg14
g4
(g8
S'\xf0A\x9a\xae\x05 \xef?'
p2895
tp2896
Rp2897
ssS'wgEncodeAwgTfbsHaibHepg2Tcf12Pcr1xUniPk'
p2898
(dp2899
g3
g4
(g8
S'C\xecm\xf3\xcc\xce\xea?'
p2900
tp2901
Rp2902
sg14
g4
(g8
S'vP\\\x96,p\xea?'
p2903
tp2904
Rp2905
ssS'wgEncodeAwgTfbsHaibHepg2Fosl2V0416101UniPk'
p2906
(dp2907
g3
g4
(g8
S'\xf8M\x0b0+^\xed?'
p2908
tp2909
Rp2910
sg14
g4
(g8
S'\x18\xbd\x9a\x8f\xfe}\xed?'
p2911
tp2912
Rp2913
ssS'wgEncodeAwgTfbsSydhGm12878Tr4UniPk'
p2914
(dp2915
g3
g4
(g8
S' \x15O\x1d\x1b\xf7\xe8?'
p2916
tp2917
Rp2918
sg14
g4
(g8
S'R\xa3`=L\xfa\xe8?'
p2919
tp2920
Rp2921
ssS'wgEncodeAwgTfbsSydhHepg2Grp20ForsklnUniPk'
p2922
(dp2923
g3
g4
(g8
S'n\xbe\xd1\xf5~_\xeb?'
p2924
tp2925
Rp2926
sg14
g4
(g8
S's|\x96v\xea\xc2\xe9?'
p2927
tp2928
Rp2929
ssS'wgEncodeAwgTfbsUtaMcf7CmycVehUniPk'
p2930
(dp2931
g3
g4
(g8
S')R\xfd\xfca#\xeb?'
p2932
tp2933
Rp2934
sg14
g4
(g8
S'\x13Co\x7f\xc5P\xeb?'
p2935
tp2936
Rp2937
ssS'wgEncodeAwgTfbsUchicagoK562Egata2UniPk'
p2938
(dp2939
g3
g4
(g8
S'L(\xc1T\x94\xfc\xea?'
p2940
tp2941
Rp2942
sg14
g4
(g8
S'#\x13\xf9\xb5 0\xeb?'
p2943
tp2944
Rp2945
ssS'wgEncodeAwgTfbsHaibSknshSin3ak20V0416101UniPk'
p2946
(dp2947
g3
g4
(g8
S'W\x9a\x80\xfb\x0e\xba\xea?'
p2948
tp2949
Rp2950
sg14
g4
(g8
S'\x8c\xae\xf3\x12X\x86\xea?'
p2951
tp2952
Rp2953
ssS'wgEncodeAwgTfbsSydhMcf7Hae2f1UcdUniPk'
p2954
(dp2955
g3
g4
(g8
S'\xa4$\xec\xbb\xfd\x97\xea?'
p2956
tp2957
Rp2958
sg14
g4
(g8
S'\x03\x10K\xb9\xb2\x9e\xea?'
p2959
tp2960
Rp2961
ssS'wgEncodeAwgTfbsHaibGm12878BatfPcr1xUniPk'
p2962
(dp2963
g3
g4
(g8
S'0a\x01oJ\xbf\xed?'
p2964
tp2965
Rp2966
sg14
g4
(g8
S'\x04\xeb\x93\xbf\xcbE\xee?'
p2967
tp2968
Rp2969
ssS'wgEncodeAwgTfbsHaibA549Fosl2V0422111Etoh02UniPk'
p2970
(dp2971
g3
g4
(g8
S'$\xfet}i\x1b\xee?'
p2972
tp2973
Rp2974
sg14
g4
(g8
S'\xd6C\xb4\x83\xaa\x19\xee?'
p2975
tp2976
Rp2977
ssS'wgEncodeAwgTfbsHaibSknshNrsfPcr2xUniPk'
p2978
(dp2979
g3
g4
(g8
S'\xbdD\x8f\x02\x04\xa4\xea?'
p2980
tp2981
Rp2982
sg14
g4
(g8
S'nA\xdah\xa3\xb2\xea?'
p2983
tp2984
Rp2985
ssS'wgEncodeAwgTfbsSydhGm12878Znf143166181apUniPk'
p2986
(dp2987
g3
g4
(g8
S'\xe7\xb0\xa5\x9f\x1aB\xed?'
p2988
tp2989
Rp2990
sg14
g4
(g8
S'\x8a\xb7x\x1d\xff\x85\xee?'
p2991
tp2992
Rp2993
ssS'wgEncodeAwgTfbsSydhK562Gata1UcdUniPk'
p2994
(dp2995
g3
g4
(g8
S'\x98\xbb\xcb\x9ea\xe2\xed?'
p2996
tp2997
Rp2998
sg14
g4
(g8
S'\x94!c\x92\xc87\xee?'
p2999
tp3000
Rp3001
ssS'wgEncodeAwgTfbsSydhK562Tf3c110UniPk'
p3002
(dp3003
g3
g4
(g8
S'\x82B\xd5S23\xee?'
p3004
tp3005
Rp3006
sg14
g4
(g8
S'\x8e\xa9\xe9J\xebG\xee?'
p3007
tp3008
Rp3009
ssS'wgEncodeAwgTfbsBroadK562Rbbp5a300109aUniPk'
p3010
(dp3011
g3
g4
(g8
S'\x14\xf6\x81\xd3o\xad\xe8?'
p3012
tp3013
Rp3014
sg14
g4
(g8
S'\x01\xc0z\xed\xe1T\xe9?'
p3015
tp3016
Rp3017
ssS'wgEncodeAwgTfbsSydhHelas3Rfx5200401194IggrabUniPk'
p3018
(dp3019
g3
g4
(g8
S'\xb4\xbcOX\xd2\x91\xeb?'
p3020
tp3021
Rp3022
sg14
g4
(g8
S'v\xe1\xa7\x8f\xfb\x01\xec?'
p3023
tp3024
Rp3025
ssS'wgEncodeAwgTfbsSydhHct116Pol2UcdUniPk'
p3026
(dp3027
g3
g4
(g8
S'~\x1b\x1b\xeb\xe4\xe4\xe9?'
p3028
tp3029
Rp3030
sg14
g4
(g8
S'Z\xba\x08\xe3\x95\x07\xea?'
p3031
tp3032
Rp3033
ssS'wgEncodeAwgTfbsSydhGm12878NfyaIggmusUniPk'
p3034
(dp3035
g3
g4
(g8
S'\xd2\xdd\xb4*\xf0\x01\xed?'
p3036
tp3037
Rp3038
sg14
g4
(g8
S'\xd4\x8f\xf78r\xc6\xec?'
p3039
tp3040
Rp3041
ssS'wgEncodeAwgTfbsSydhPanc1Tcf7l2UcdUniPk'
p3042
(dp3043
g3
g4
(g8
S'\xe9y\x17\xda\x8a\xca\xe9?'
p3044
tp3045
Rp3046
sg14
g4
(g8
S'\xac\xb6\xe7\xb5#\x12\xea?'
p3047
tp3048
Rp3049
ssS'wgEncodeAwgTfbsSydhHelas3MaxIggrabUniPk'
p3050
(dp3051
g3
g4
(g8
S'w\xce \x11\xef\x8a\xeb?'
p3052
tp3053
Rp3054
sg14
g4
(g8
S'!\x08)\x046d\xeb?'
p3055
tp3056
Rp3057
ssS'wgEncodeAwgTfbsSydhGm12878P300bUniPk'
p3058
(dp3059
g3
g4
(g8
S")\xa4N\x19Q'\xed?"
p3060
tp3061
Rp3062
sg14
g4
(g8
S'v\x85%5\x9ft\xed?'
p3063
tp3064
Rp3065
ssS'wgEncodeAwgTfbsHaibGm12878Tcf12Pcr1xUniPk'
p3066
(dp3067
g3
g4
(g8
S'\x10\x13\xb9G\x16v\xec?'
p3068
tp3069
Rp3070
sg14
g4
(g8
S'\x01\xd0:\xaf\n\xa9\xec?'
p3071
tp3072
Rp3073
ssS'wgEncodeAwgTfbsUtaHuvecCmycUniPk'
p3074
(dp3075
g3
g4
(g8
S'\xe4|UT%k\xec?'
p3076
tp3077
Rp3078
sg14
g4
(g8
S'\x0c\xfdr\x88\x08j\xec?'
p3079
tp3080
Rp3081
ssS'wgEncodeAwgTfbsSydhGm10847NfkbTnfaIggrabUniPk'
p3082
(dp3083
g3
g4
(g8
S'\x17\xc7"\x82O\x84\xeb?'
p3084
tp3085
Rp3086
sg14
g4
(g8
S'\x8d\xeb_\x7f\xb4\xfc\xeb?'
p3087
tp3088
Rp3089
ssS'wgEncodeAwgTfbsUwK562CtcfUniPk'
p3090
(dp3091
g3
g4
(g8
S'\xf4\xff\x1f\xb4K3\xee?'
p3092
tp3093
Rp3094
sg14
g4
(g8
S'1\xd0\x8a\xdcPP\xef?'
p3095
tp3096
Rp3097
ssS'wgEncodeAwgTfbsSydhK562Brf2UniPk'
p3098
(dp3099
g3
g4
(g8
S'\x85[0\xd5\x8aS\xe5?'
p3100
tp3101
Rp3102
sg14
g4
(g8
S'*\xd0\x03\xe2\xc8%\xe5?'
p3103
tp3104
Rp3105
ssS'wgEncodeAwgTfbsSydhHelas3NfyaIggrabUniPk'
p3106
(dp3107
g3
g4
(g8
S'\xfa\x0b\xf8\xc1\xbfG\xec?'
p3108
tp3109
Rp3110
sg14
g4
(g8
S"\xf4'5\t\x18\x88\xec?"
p3111
tp3112
Rp3113
ssS'wgEncodeAwgTfbsSydhK562E2f4UcdUniPk'
p3114
(dp3115
g3
g4
(g8
S'\xd8\x10\xe4\xa3\x9c\xbe\xeb?'
p3116
tp3117
Rp3118
sg14
g4
(g8
S'\xc9\xc69\xaa\x82\xe0\xeb?'
p3119
tp3120
Rp3121
ssS'wgEncodeAwgTfbsUwAg04449CtcfUniPk'
p3122
(dp3123
g3
g4
(g8
S'\x05\xd5\x945\xfc\xff\xed?'
p3124
tp3125
Rp3126
sg14
g4
(g8
S'1\xb0\xf6f\xab;\xef?'
p3127
tp3128
Rp3129
ssS'wgEncodeAwgTfbsSydhHelas3Ap2alphaUniPk'
p3130
(dp3131
g3
g4
(g8
S' \x98Y\x9fvt\xec?'
p3132
tp3133
Rp3134
sg14
g4
(g8
S'*a)\xd6d\xbd\xec?'
p3135
tp3136
Rp3137
ssS'wgEncodeAwgTfbsHaibH1hescRad21V0416102UniPk'
p3138
(dp3139
g3
g4
(g8
S'+\xd2\xfcd\x9cj\xed?'
p3140
tp3141
Rp3142
sg14
g4
(g8
S'/\xf9\x12\xbb[\xe6\xee?'
p3143
tp3144
Rp3145
ssS'wgEncodeAwgTfbsHaibA549Tcf12V0422111Etoh02UniPk'
p3146
(dp3147
g3
g4
(g8
S'\x8e\x92>\xc6\xeck\xeb?'
p3148
tp3149
Rp3150
sg14
g4
(g8
S'\xb9_\xd4 )\xe7\xea?'
p3151
tp3152
Rp3153
ssS'wgEncodeAwgTfbsSydhH1hescGtf2f1IggrabUniPk'
p3154
(dp3155
g3
g4
(g8
S'\xf8\x90\xde\xe7B)\xe9?'
p3156
tp3157
Rp3158
sg14
g4
(g8
S'\x81\xa7\xcc\x0c\x1a\xb8\xe9?'
p3159
tp3160
Rp3161
ssS'wgEncodeAwgTfbsSydhHuvecMaxUniPk'
p3162
(dp3163
g3
g4
(g8
S'\\B\xa29\x92\xab\xed?'
p3164
tp3165
Rp3166
sg14
g4
(g8
S'\xc0\xa50kt\xbf\xed?'
p3167
tp3168
Rp3169
ssS'wgEncodeAwgTfbsHaibU87Pol24h8V0416101UniPk'
p3170
(dp3171
g3
g4
(g8
S'\xda\xfcm\x0fQ\x8f\xe9?'
p3172
tp3173
Rp3174
sg14
g4
(g8
S'\x0e\xb2\xa6\x95r\xbf\xe9?'
p3175
tp3176
Rp3177
ssS'wgEncodeAwgTfbsSydhHepg2Nrf1IggrabUniPk'
p3178
(dp3179
g3
g4
(g8
S'\x8d\xaf\xfa\xcb]I\xef?'
p3180
tp3181
Rp3182
sg14
g4
(g8
S'\x85\x0c\xa8\xbc6~\xef?'
p3183
tp3184
Rp3185
ssS'wgEncodeAwgTfbsHaibHepg2Yy1sc281V0416101UniPk'
p3186
(dp3187
g3
g4
(g8
S'\xe7\x1e\x9a;\xd1\xb9\xeb?'
p3188
tp3189
Rp3190
sg14
g4
(g8
S'HS\xd2%\xaa\xd8\xeb?'
p3191
tp3192
Rp3193
ssS'wgEncodeAwgTfbsSydhGm12878Sin3anb6001263IggmusUniPk'
p3194
(dp3195
g3
g4
(g8
S':\xda/L:L\xe9?'
p3196
tp3197
Rp3198
sg14
g4
(g8
S'\xaa\xc2\x81\xd5\xc9\x93\xe9?'
p3199
tp3200
Rp3201
ssS'wgEncodeAwgTfbsHaibA549Ctcfsc5916Pcr1xEtoh02UniPk'
p3202
(dp3203
g3
g4
(g8
S'\x08\xf8\x1d>#\x82\xee?'
p3204
tp3205
Rp3206
sg14
g4
(g8
S'4\xf5\\\xe8s\x86\xef?'
p3207
tp3208
Rp3209
ssS'wgEncodeAwgTfbsSydhHepg2TbpIggrabUniPk'
p3210
(dp3211
g3
g4
(g8
S'\xb6\xd0\xac@!\xb3\xe9?'
p3212
tp3213
Rp3214
sg14
g4
(g8
S'\xbe?\x88\xe5\xd4\x19\xea?'
p3215
tp3216
Rp3217
ssS'wgEncodeAwgTfbsSydhHepg2Tr4UcdUniPk'
p3218
(dp3219
g3
g4
(g8
S'Q%\x18\xc0tU\xea?'
p3220
tp3221
Rp3222
sg14
g4
(g8
S'\xec)(\x07|\xae\xea?'
p3223
tp3224
Rp3225
ssS'wgEncodeAwgTfbsHaibGm12878Cebpbsc150V0422111UniPk'
p3226
(dp3227
g3
g4
(g8
S'\x90\x9a]\xa4\x04)\xeb?'
p3228
tp3229
Rp3230
sg14
g4
(g8
S'Z\xe1\x90\xf8\xd5J\xeb?'
p3231
tp3232
Rp3233
ssS'wgEncodeAwgTfbsSydhHelas3Usf2IggmusUniPk'
p3234
(dp3235
g3
g4
(g8
S'\x83\x9f\x1e\xc4\xe0\xa7\xed?'
p3236
tp3237
Rp3238
sg14
g4
(g8
S'\xc7$\x1e\xfb1\x89\xed?'
p3239
tp3240
Rp3241
ssS'wgEncodeAwgTfbsSydhShsy5yGata2UcdUniPk'
p3242
(dp3243
g3
g4
(g8
S'\x86\x1fd\xf6/\xe4\xec?'
p3244
tp3245
Rp3246
sg14
g4
(g8
S'\x1e\xb6\xa4xm\xc0\xec?'
p3247
tp3248
Rp3249
ssS'wgEncodeAwgTfbsSydhK562Corestab24166IggrabUniPk'
p3250
(dp3251
g3
g4
(g8
S's\x1f\x80W\xbb\xda\xea?'
p3252
tp3253
Rp3254
sg14
g4
(g8
S'\xa2\xcbgH\xfe\xe7\xea?'
p3255
tp3256
Rp3257
ssS'wgEncodeAwgTfbsUwHl60CtcfUniPk'
p3258
(dp3259
g3
g4
(g8
S'\xdf\xcc\xe9\xbe\xb1\xc2\xee?'
p3260
tp3261
Rp3262
sg14
g4
(g8
S'\xef\xd4\xda\xc7\xf7\xbf\xef?'
p3263
tp3264
Rp3265
ssS'wgEncodeAwgTfbsHaibGm12878Taf1Pcr1xUniPk'
p3266
(dp3267
g3
g4
(g8
S'z\xc2{\xd9%|\xea?'
p3268
tp3269
Rp3270
sg14
g4
(g8
S'\x0e*\xae\xbc\x9d\x84\xea?'
p3271
tp3272
Rp3273
ssS'wgEncodeAwgTfbsHaibGm12891Taf1Pcr1xUniPk'
p3274
(dp3275
g3
g4
(g8
S"\xf8\x16f|\xe0'\xea?"
p3276
tp3277
Rp3278
sg14
g4
(g8
S'F \xa5\xed\xc1`\xea?'
p3279
tp3280
Rp3281
ssS'wgEncodeAwgTfbsSydhHelas3JundIggrabUniPk'
p3282
(dp3283
g3
g4
(g8
S'.\xfc\xedxn}\xee?'
p3284
tp3285
Rp3286
sg14
g4
(g8
S'>\xdd\\\xc7\xf7\x89\xee?'
p3287
tp3288
Rp3289
ssS'wgEncodeAwgTfbsHaibGm12878Irf4sc6059Pcr1xUniPk'
p3290
(dp3291
g3
g4
(g8
S'a\xd5\x13\x7f\x92*\xec?'
p3292
tp3293
Rp3294
sg14
g4
(g8
S'\x99\t\xc4\xdf\xffg\xec?'
p3295
tp3296
Rp3297
ssS'wgEncodeAwgTfbsHaibH1hescAtf3V0416102UniPk'
p3298
(dp3299
g3
g4
(g8
S'\xac\x97\r\xcc\x9d)\xed?'
p3300
tp3301
Rp3302
sg14
g4
(g8
S'\x12\x1dT\x8d\x9fl\xed?'
p3303
tp3304
Rp3305
ssS'wgEncodeAwgTfbsHaibT47dP300V0416102Dm002p1hUniPk'
p3306
(dp3307
g3
g4
(g8
S'\xd8N\xca8\rw\xeb?'
p3308
tp3309
Rp3310
sg14
g4
(g8
S'%\x82\xaf^\x12\xf0\xeb?'
p3311
tp3312
Rp3313
ssS'wgEncodeAwgTfbsHaibA549Taf1V0422111Etoh02UniPk'
p3314
(dp3315
g3
g4
(g8
S'\xbf\xf5zg\x1f\xdd\xe8?'
p3316
tp3317
Rp3318
sg14
g4
(g8
S"'\x97R\xe2\xd2\x88\xe8?"
p3319
tp3320
Rp3321
ssS'wgEncodeAwgTfbsBroadHepg2Ezh239875UniPk'
p3322
(dp3323
g3
g4
(g8
S'EF\xff\xc6k\x8b\xe8?'
p3324
tp3325
Rp3326
sg14
g4
(g8
S'!*i\x05i\xbd\xe8?'
p3327
tp3328
Rp3329
ssS'wgEncodeAwgTfbsHaibHelas3NrsfPcr1xUniPk'
p3330
(dp3331
g3
g4
(g8
S'(\xdc)\xc0\xc7\x8d\xed?'
p3332
tp3333
Rp3334
sg14
g4
(g8
S'v\xbe\x10\x80\xe9\x1f\xee?'
p3335
tp3336
Rp3337
ssS'wgEncodeAwgTfbsHaibK562Sp1Pcr1xUniPk'
p3338
(dp3339
g3
g4
(g8
S'\xdfE\xcd\xe9/\xbd\xeb?'
p3340
tp3341
Rp3342
sg14
g4
(g8
S'\x91^\xa6y\xb9\xe3\xeb?'
p3343
tp3344
Rp3345
ssS'wgEncodeAwgTfbsHaibSknshraUsf1sc8983V0416102UniPk'
p3346
(dp3347
g3
g4
(g8
S'\x84\xbb\xf8z*\xd4\xee?'
p3348
tp3349
Rp3350
sg14
g4
(g8
S'w\xc6\xd76B\xf3\xee?'
p3351
tp3352
Rp3353
ssS'wgEncodeAwgTfbsHaibH1hescGabpPcr1xUniPk'
p3354
(dp3355
g3
g4
(g8
S'^W\x99\x87\xe1\x8a\xeb?'
p3356
tp3357
Rp3358
sg14
g4
(g8
S'\xa8\x84{\xd5\xd54\xec?'
p3359
tp3360
Rp3361
ssS'wgEncodeAwgTfbsSydhHepg2ErraForsklnUniPk'
p3362
(dp3363
g3
g4
(g8
S'\x15\x92e\xb9\x93\xcb\xeb?'
p3364
tp3365
Rp3366
sg14
g4
(g8
S'rMP\xaa\x0c\x93\xeb?'
p3367
tp3368
Rp3369
ssS'wgEncodeAwgTfbsUwNb4CtcfUniPk'
p3370
(dp3371
g3
g4
(g8
S'\x9d\xd3U`\xc7u\xee?'
p3372
tp3373
Rp3374
sg14
g4
(g8
S'`\x96\x13z[\x86\xef?'
p3375
tp3376
Rp3377
ssS'wgEncodeAwgTfbsSydhGm18505Pol2IggmusUniPk'
p3378
(dp3379
g3
g4
(g8
S'\xce\xa7\xff\xff\x95\xbe\xe9?'
p3380
tp3381
Rp3382
sg14
g4
(g8
S'\xb72\xcd\xfb~\xe1\xe9?'
p3383
tp3384
Rp3385
ssS'wgEncodeAwgTfbsUwBjCtcfUniPk'
p3386
(dp3387
g3
g4
(g8
S'\xc7\xfb\xb0\x04\xbb\xfd\xed?'
p3388
tp3389
Rp3390
sg14
g4
(g8
S'\t\x08P\x02p(\xef?'
p3391
tp3392
Rp3393
ssS'wgEncodeAwgTfbsSydhMcf10aesCfosTam14hHvdUniPk'
p3394
(dp3395
g3
g4
(g8
S'M\xe4K\xea\xe9\xc0\xee?'
p3396
tp3397
Rp3398
sg14
g4
(g8
S'\xe2\x84\xfa\xb2r\xc6\xee?'
p3399
tp3400
Rp3401
ssS'wgEncodeAwgTfbsUwHreCtcfUniPk'
p3402
(dp3403
g3
g4
(g8
S'\x00\xa8\xe9f=U\xee?'
p3404
tp3405
Rp3406
sg14
g4
(g8
S'\x95\xa2-\xf1\xf3b\xef?'
p3407
tp3408
Rp3409
ssS'wgEncodeAwgTfbsUtaMcf7Pol2SerumstvdUniPk'
p3410
(dp3411
g3
g4
(g8
S'\x8c\xc6\x0c\x80\xf2V\xea?'
p3412
tp3413
Rp3414
sg14
g4
(g8
S'\xe8\xe29\x0c\x0e\xb7\xea?'
p3415
tp3416
Rp3417
ssS'wgEncodeAwgTfbsBroadK562Chd1a301218aUniPk'
p3418
(dp3419
g3
g4
(g8
S'8\xd7c\x1c8\xa3\xe7?'
p3420
tp3421
Rp3422
sg14
g4
(g8
S'\xcaU%X\x91\x1d\xe8?'
p3423
tp3424
Rp3425
ssS'wgEncodeAwgTfbsSydhMcf10aesCfosTam112hHvdUniPk'
p3426
(dp3427
g3
g4
(g8
S'\x1d_\x01\xde\xff\xe6\xee?'
p3428
tp3429
Rp3430
sg14
g4
(g8
S'\x81\xa4\xca\xbe\xd9\xdc\xee?'
p3431
tp3432
Rp3433
ssS'wgEncodeAwgTfbsSydhRajiPol2UcdUniPk'
p3434
(dp3435
g3
g4
(g8
S'\xd6\xe6\x11W\xb7<\xe9?'
p3436
tp3437
Rp3438
sg14
g4
(g8
S'\xe0\xa4HM\xdb&\xe9?'
p3439
tp3440
Rp3441
ssS'wgEncodeAwgTfbsSydhK562Pol2Ifng30UniPk'
p3442
(dp3443
g3
g4
(g8
S'l\x02&\x06\xa6\xad\xe9?'
p3444
tp3445
Rp3446
sg14
g4
(g8
S'$\xd1EX\x82\xe3\xe9?'
p3447
tp3448
Rp3449
ssS'wgEncodeAwgTfbsSydhGm12878Chd2ab68301IggmusUniPk'
p3450
(dp3451
g3
g4
(g8
S'\x99]\xb5\xc8\xe6\xb0\xea?'
p3452
tp3453
Rp3454
sg14
g4
(g8
S'??\xe4\xd4\xfa\xc5\xea?'
p3455
tp3456
Rp3457
ssS'wgEncodeAwgTfbsBroadHelas3CtcfUniPk'
p3458
(dp3459
g3
g4
(g8
S'\x93\x83\xa3\xf6\xdcK\xed?'
p3460
tp3461
Rp3462
sg14
g4
(g8
S'\x0fZ\x94u\xefv\xee?'
p3463
tp3464
Rp3465
ssS'wgEncodeAwgTfbsSydhK562Elk112771IggrabUniPk'
p3466
(dp3467
g3
g4
(g8
S'\xbe\xf9t\x98\x15^\xec?'
p3468
tp3469
Rp3470
sg14
g4
(g8
S'\x1a\xb9\xb8\x17\xb1\x83\xec?'
p3471
tp3472
Rp3473
ssS'wgEncodeAwgTfbsSydhHepg2Maffm8194IggrabUniPk'
p3474
(dp3475
g3
g4
(g8
S'\x8f\x1d\xa9\x82s\x8a\xee?'
p3476
tp3477
Rp3478
sg14
g4
(g8
S'MUU\xf7\x14b\xef?'
p3479
tp3480
Rp3481
ssS'wgEncodeAwgTfbsHaibEcc1EralphaaV0416102Gen1hUniPk'
p3482
(dp3483
g3
g4
(g8
S'&pEc?~\xeb?'
p3484
tp3485
Rp3486
sg14
g4
(g8
S'Q\xf5\xae\xfe|\t\xec?'
p3487
tp3488
Rp3489
ssS'wgEncodeAwgTfbsSydhK562Brg1IggmusUniPk'
p3490
(dp3491
g3
g4
(g8
S'\xd6:h\x1c)\xb1\xe7?'
p3492
tp3493
Rp3494
sg14
g4
(g8
S'DM\xe2*\xcd[\xe8?'
p3495
tp3496
Rp3497
ssS'wgEncodeAwgTfbsUwCaco2CtcfUniPk'
p3498
(dp3499
g3
g4
(g8
S'\xbc\xf0\x01=\xeb;\xee?'
p3500
tp3501
Rp3502
sg14
g4
(g8
S'\x92\xec\xa8&\x93Y\xef?'
p3503
tp3504
Rp3505
ssS'wgEncodeAwgTfbsHaibGm12878Atf3Pcr1xUniPk'
p3506
(dp3507
g3
g4
(g8
S'(\xf5\x03\x1a\xea\xbe\xeb?'
p3508
tp3509
Rp3510
sg14
g4
(g8
S'E:\xdb\xb0\x96\xbc\xeb?'
p3511
tp3512
Rp3513
ssS'wgEncodeAwgTfbsSydhGm19099Pol2IggmusUniPk'
p3514
(dp3515
g3
g4
(g8
S'\x03\x94\xff\xf6\xe1b\xe9?'
p3516
tp3517
Rp3518
sg14
g4
(g8
S'\xf0~gx\x9cs\xe9?'
p3519
tp3520
Rp3521
ssS'wgEncodeAwgTfbsUwHepg2CtcfUniPk'
p3522
(dp3523
g3
g4
(g8
S'X\xfc\x88\x0b\xc1%\xee?'
p3524
tp3525
Rp3526
sg14
g4
(g8
S'\xa2\x1e`F\x85J\xef?'
p3527
tp3528
Rp3529
ssS'wgEncodeAwgTfbsHaibSknshraRad21V0416102UniPk'
p3530
(dp3531
g3
g4
(g8
S'NO&+\xbc\xe7\xec?'
p3532
tp3533
Rp3534
sg14
g4
(g8
S'\x9f\xb0\x85M\xf3<\xee?'
p3535
tp3536
Rp3537
ssS'wgEncodeAwgTfbsSydhHepg2Hnf4aForsklnUniPk'
p3538
(dp3539
g3
g4
(g8
S'\x90\x87.\xba#\x11\xed?'
p3540
tp3541
Rp3542
sg14
g4
(g8
S'\xcf\xe7\r\x85\x86u\xed?'
p3543
tp3544
Rp3545
ssS'wgEncodeAwgTfbsSydhGm12878Ebf1sc137065UniPk'
p3546
(dp3547
g3
g4
(g8
S'M\x19\x9a\xc1\xccC\xed?'
p3548
tp3549
Rp3550
sg14
g4
(g8
S'.\xb3-6p\xa5\xed?'
p3551
tp3552
Rp3553
ssS'wgEncodeAwgTfbsSydhGm12878Pol2UniPk'
p3554
(dp3555
g3
g4
(g8
S'S\xc9\xb7v\x97\x0c\xe9?'
p3556
tp3557
Rp3558
sg14
g4
(g8
S'\xea.\xc6R\x82b\xe9?'
p3559
tp3560
Rp3561
ssS'wgEncodeAwgTfbsSydhH1hescRad21IggrabUniPk'
p3562
(dp3563
g3
g4
(g8
S'\xf9\xbbL\x17\x0c\xd4\xed?'
p3564
tp3565
Rp3566
sg14
g4
(g8
S'g\xc5cdF0\xef?'
p3567
tp3568
Rp3569
ssS'wgEncodeAwgTfbsBroadHsmmCtcfUniPk'
p3570
(dp3571
g3
g4
(g8
S'\x93\xd9J\xd5\xd1\t\xee?'
p3572
tp3573
Rp3574
sg14
g4
(g8
S'\xf36R\x80\xb0*\xef?'
p3575
tp3576
Rp3577
ssS'wgEncodeAwgTfbsHaibHepg2Taf1Pcr2xUniPk'
p3578
(dp3579
g3
g4
(g8
S'\x0c\x8b\xdf\x9d\x16\x19\xea?'
p3580
tp3581
Rp3582
sg14
g4
(g8
S'\xc8\xe5s\x0e\xb0\x9d\xea?'
p3583
tp3584
Rp3585
ssS'wgEncodeAwgTfbsHaibK562Taf1V0416101UniPk'
p3586
(dp3587
g3
g4
(g8
S'\x18\xdb\x01\xc1\xd9\xcb\xea?'
p3588
tp3589
Rp3590
sg14
g4
(g8
S'\x8a=-/\x86\x0c\xeb?'
p3591
tp3592
Rp3593
ssS'wgEncodeAwgTfbsHaibH1hescSix5Pcr1xUniPk'
p3594
(dp3595
g3
g4
(g8
S'\xbb\xe1\xcf\x82\x81\xbc\xec?'
p3596
tp3597
Rp3598
sg14
g4
(g8
S';G\xe0\xf5Y\x03\xed?'
p3599
tp3600
Rp3601
ssS'wgEncodeAwgTfbsSydhHelas3Gtf2f1ab28179IggrabUniPk'
p3602
(dp3603
g3
g4
(g8
S'\xc5\x8fuP\xac\xed\xe9?'
p3604
tp3605
Rp3606
sg14
g4
(g8
S'S\xcd\xc8\x9dmb\xea?'
p3607
tp3608
Rp3609
ssS'wgEncodeAwgTfbsUwHuvecCtcfUniPk'
p3610
(dp3611
g3
g4
(g8
S'\rt\n\x8bxM\xee?'
p3612
tp3613
Rp3614
sg14
g4
(g8
S'\xc8m\xdc#\xffb\xef?'
p3615
tp3616
Rp3617
ssS'wgEncodeAwgTfbsHaibT47dEralphaaPcr2xGen1hUniPk'
p3618
(dp3619
g3
g4
(g8
S'\xbaq\xc8\xbc\xf6\xfa\xeb?'
p3620
tp3621
Rp3622
sg14
g4
(g8
S']\xb4F\x07\xd8\xa4\xec?'
p3623
tp3624
Rp3625
ssS'wgEncodeAwgTfbsHaibGm12892Taf1V0416102UniPk'
p3626
(dp3627
g3
g4
(g8
S'<\xa3\x87\xb1\x18\x89\xea?'
p3628
tp3629
Rp3630
sg14
g4
(g8
S'\xdcZ\x1f\x9bw\x95\xea?'
p3631
tp3632
Rp3633
ssS'wgEncodeAwgTfbsHaibK562Atf3V0416101UniPk'
p3634
(dp3635
g3
g4
(g8
S'\x83\xe1\x85|\xd6b\xed?'
p3636
tp3637
Rp3638
sg14
g4
(g8
S'\x93\x12\xaa\xfe\x96\xba\xed?'
p3639
tp3640
Rp3641
ssS'wgEncodeAwgTfbsUwHcfaaCtcfUniPk'
p3642
(dp3643
g3
g4
(g8
S'~\xc3\xff\xa2\x19F\xee?'
p3644
tp3645
Rp3646
sg14
g4
(g8
S'\xe3\x00\xd2\x96\xeak\xef?'
p3647
tp3648
Rp3649
ssS'wgEncodeAwgTfbsSydhGm12878Mxi1IggmusUniPk'
p3650
(dp3651
g3
g4
(g8
S'^\xc7\x8d\x8b\xf49\xea?'
p3652
tp3653
Rp3654
sg14
g4
(g8
S'\xe2i>\x14X\x1c\xea?'
p3655
tp3656
Rp3657
ssS'wgEncodeAwgTfbsUtaProgfibPol2UniPk'
p3658
(dp3659
g3
g4
(g8
S'@\xab\xdb\xd3\x82\xf5\xe9?'
p3660
tp3661
Rp3662
sg14
g4
(g8
S'\x96\xc6\xc5=\xbb!\xea?'
p3663
tp3664
Rp3665
ssS'wgEncodeAwgTfbsHaibHepg2Foxa2sc6554V0416101UniPk'
p3666
(dp3667
g3
g4
(g8
S'\xa8\x8f\xda1/\x15\xee?'
p3668
tp3669
Rp3670
sg14
g4
(g8
S'\xea\xdd\xc4\x0f\xb7c\xee?'
p3671
tp3672
Rp3673
ssS'wgEncodeAwgTfbsHaibHepg2Cebpbsc150V0416101UniPk'
p3674
(dp3675
g3
g4
(g8
S'\x17\ni\xd6\xde\xca\xee?'
p3676
tp3677
Rp3678
sg14
g4
(g8
S'\xe7a]}T\x0f\xef?'
p3679
tp3680
Rp3681
ssS'wgEncodeAwgTfbsSydhH1hescMxi1IggrabUniPk'
p3682
(dp3683
g3
g4
(g8
S'\xbf\x1f%\x1cB\xb3\xea?'
p3684
tp3685
Rp3686
sg14
g4
(g8
S'\xa2j\xbf\xcc\x01\x10\xeb?'
p3687
tp3688
Rp3689
ssS'wgEncodeAwgTfbsHaibGm12891Yy1sc281V0416101UniPk'
p3690
(dp3691
g3
g4
(g8
S'\x0c\x9bZZ\xb2\xf0\xeb?'
p3692
tp3693
Rp3694
sg14
g4
(g8
S'\xda\xc0X\xa2bJ\xec?'
p3695
tp3696
Rp3697
ssS'wgEncodeAwgTfbsHaibGm12878Usf1Pcr2xUniPk'
p3698
(dp3699
g3
g4
(g8
S'\x10\xba(\xcdc<\xee?'
p3700
tp3701
Rp3702
sg14
g4
(g8
S'\x1d[\x89.:.\xee?'
p3703
tp3704
Rp3705
ssS'wgEncodeAwgTfbsSydhGm12878Nfe2sc22827UniPk'
p3706
(dp3707
g3
g4
(g8
S'4\xf0\x837\xc8\x83\xee?'
p3708
tp3709
Rp3710
sg14
g4
(g8
S'\xf3\xed\xd8&\xc3\xf6\xed?'
p3711
tp3712
Rp3713
ssS'wgEncodeAwgTfbsUwHmfCtcfUniPk'
p3714
(dp3715
g3
g4
(g8
S'P\xdb\xa0\x82\xec6\xee?'
p3716
tp3717
Rp3718
sg14
g4
(g8
S'\xc2\x8b\nB\xdf\\\xef?'
p3719
tp3720
Rp3721
ssS'wgEncodeAwgTfbsSydhHelas3Pol2UniPk'
p3722
(dp3723
g3
g4
(g8
S'\x8a\x8a\xc3\x7f\x8a\x81\xe9?'
p3724
tp3725
Rp3726
sg14
g4
(g8
S'k\x96o\xd5\xef\xaa\xe9?'
p3727
tp3728
Rp3729
ssS'wgEncodeAwgTfbsSydhGm12878Smc3ab9263IggmusUniPk'
p3730
(dp3731
g3
g4
(g8
S'\x98J\xe1\xf2\xbc\xbc\xed?'
p3732
tp3733
Rp3734
sg14
g4
(g8
S'a@!%\x95\x90\xee?'
p3735
tp3736
Rp3737
ssS'wgEncodeAwgTfbsSydhK562CebpbIggrabUniPk'
p3738
(dp3739
g3
g4
(g8
S'\x1d\x1f\xfe\x8aq\xec\xee?'
p3740
tp3741
Rp3742
sg14
g4
(g8
S'=\x99Z\xdd\xda,\xef?'
p3743
tp3744
Rp3745
ssS'wgEncodeAwgTfbsHaibPfsk1Foxp2Pcr2xUniPk'
p3746
(dp3747
g3
g4
(g8
S'\xc0.9\x98\xb8{\xeb?'
p3748
tp3749
Rp3750
sg14
g4
(g8
S'\x1d\xab\xfch\xeb\xbc\xeb?'
p3751
tp3752
Rp3753
ssS'wgEncodeAwgTfbsSydhK562Irf1Ifna6hUniPk'
p3754
(dp3755
g3
g4
(g8
S'a\xba\x87\xae\\7\xeb?'
p3756
tp3757
Rp3758
sg14
g4
(g8
S'\xd9N\x90\xf1;\xa8\xea?'
p3759
tp3760
Rp3761
ssS'wgEncodeAwgTfbsHaibH1hescSp2V0422111UniPk'
p3762
(dp3763
g3
g4
(g8
S'\x1c\xa8p\xd7\xff\r\xed?'
p3764
tp3765
Rp3766
sg14
g4
(g8
S'&\xed}\xa2\x9e\xdf\xec?'
p3767
tp3768
Rp3769
ssS'wgEncodeAwgTfbsSydhHuvecPol2UniPk'
p3770
(dp3771
g3
g4
(g8
S'U\x8b\x8cV\xfa \xe9?'
p3772
tp3773
Rp3774
sg14
g4
(g8
S'\xd0:\x1b\xb2\xc1\xbf\xe9?'
p3775
tp3776
Rp3777
ssS'wgEncodeAwgTfbsSydhGm12891Pol2IggmusUniPk'
p3778
(dp3779
g3
g4
(g8
S'K\xa3#\x82\xda\x80\xe8?'
p3780
tp3781
Rp3782
sg14
g4
(g8
S'd\xb7M\x8d\xaf\xf8\xe8?'
p3783
tp3784
Rp3785
ssS'wgEncodeAwgTfbsUchicagoK562Ehdac8UniPk'
p3786
(dp3787
g3
g4
(g8
S'"\'\x17\x97X\x00\xe6?'
p3788
tp3789
Rp3790
sg14
g4
(g8
S'q\xb8z\xfb\xaf1\xe6?'
p3791
tp3792
Rp3793
ssS'wgEncodeAwgTfbsSydhK562Yy1UcdUniPk'
p3794
(dp3795
g3
g4
(g8
S'\xed\x8f>a\xbdi\xee?'
p3796
tp3797
Rp3798
sg14
g4
(g8
S'M67\xce|\x88\xee?'
p3799
tp3800
Rp3801
ssS'wgEncodeAwgTfbsHaibGm12891Pou2f2Pcr1xUniPk'
p3802
(dp3803
g3
g4
(g8
S"T\xd2\xd7\xe3\x8d'\xeb?"
p3804
tp3805
Rp3806
sg14
g4
(g8
S'\xa1\xef\xf7\xe6\xac\xf0\xea?'
p3807
tp3808
Rp3809
ssS'wgEncodeAwgTfbsSydhK562Rpc155UniPk'
p3810
(dp3811
g3
g4
(g8
S'A\x90\x92H\xb1\xcd\xec?'
p3812
tp3813
Rp3814
sg14
g4
(g8
S'\xc7\x87\xda5"\x17\xed?'
p3815
tp3816
Rp3817
ssS'wgEncodeAwgTfbsSydhK562Kap1UcdUniPk'
p3818
(dp3819
g3
g4
(g8
S'\x8f\x91\xc4\xa1R\xe8\xe9?'
p3820
tp3821
Rp3822
sg14
g4
(g8
S'@\xb3\xc8\x93Z\x92\xea?'
p3823
tp3824
Rp3825
ssS'wgEncodeAwgTfbsSydhGm12878Usf2IggmusUniPk'
p3826
(dp3827
g3
g4
(g8
S'h\xc8\xf2\xde\x9f\x08\xee?'
p3828
tp3829
Rp3830
sg14
g4
(g8
S'\xe7\x00\xeb\xdcJ\xfd\xed?'
p3831
tp3832
Rp3833
ssS'wgEncodeAwgTfbsBroadK562Plu1UniPk'
p3834
(dp3835
g3
g4
(g8
S'8\xc1\xe5\xf9\t\x8d\xe9?'
p3836
tp3837
Rp3838
sg14
g4
(g8
S'\xec\xd9\xf8x\xfc\xcf\xe9?'
p3839
tp3840
Rp3841
ssS'wgEncodeAwgTfbsUwRptecCtcfUniPk'
p3842
(dp3843
g3
g4
(g8
S'\xa1\xf9k\xa4\xa6\r\xee?'
p3844
tp3845
Rp3846
sg14
g4
(g8
S'\x18_\xe5\xcc\x9b \xef?'
p3847
tp3848
Rp3849
ssS'wgEncodeAwgTfbsHaibH1hescPou5f1sc9081V0416102UniPk'
p3850
(dp3851
g3
g4
(g8
S'\xd5+WBV\x8d\xed?'
p3852
tp3853
Rp3854
sg14
g4
(g8
S'\xca#\xd0\x89\x9d\xde\xed?'
p3855
tp3856
Rp3857
ssS'wgEncodeAwgTfbsSydhHepg2MaxIggrabUniPk'
p3858
(dp3859
g3
g4
(g8
S'\xc5\xb8W\xff\xa9\x1c\xec?'
p3860
tp3861
Rp3862
sg14
g4
(g8
S'\xbbT\xc9\xd7\x9f\xe8\xeb?'
p3863
tp3864
Rp3865
ssS'wgEncodeAwgTfbsHaibGm12878Pu1Pcr1xUniPk'
p3866
(dp3867
g3
g4
(g8
S'\xa1\x14>~\xd5\x05\xef?'
p3868
tp3869
Rp3870
sg14
g4
(g8
S't\xdc?L\xcdF\xef?'
p3871
tp3872
Rp3873
ssS'wgEncodeAwgTfbsSydhHepg2P300sc582IggrabUniPk'
p3874
(dp3875
g3
g4
(g8
S'\x964\rF\x1c\xe7\xea?'
p3876
tp3877
Rp3878
sg14
g4
(g8
S'\x06ck4\xfer\xeb?'
p3879
tp3880
Rp3881
ssS'wgEncodeAwgTfbsUwNhdfneoCtcfUniPk'
p3882
(dp3883
g3
g4
(g8
S'\xe2\xf6_yX\x14\xee?'
p3884
tp3885
Rp3886
sg14
g4
(g8
S'\\\xd2P\x14T\x1e\xef?'
p3887
tp3888
Rp3889
ssS'wgEncodeAwgTfbsHaibEcc1EraaV0416102Bpa1hUniPk'
p3890
(dp3891
g3
g4
(g8
S'N0\x0f\x08\xef\x93\xeb?'
p3892
tp3893
Rp3894
sg14
g4
(g8
S'\xe4\xdb\xc2\xcd\xc9w\xeb?'
p3895
tp3896
Rp3897
ssS'wgEncodeAwgTfbsSydhHek293tZnf263UcdUniPk'
p3898
(dp3899
g3
g4
(g8
S'&\xd7\xc3G\x9f\xac\xeb?'
p3900
tp3901
Rp3902
sg14
g4
(g8
S'\xe2\xae\xf4\x8f5\x8b\xeb?'
p3903
tp3904
Rp3905
ssS'wgEncodeAwgTfbsSydhK562CtcfbIggrabUniPk'
p3906
(dp3907
g3
g4
(g8
S'\x1cM\xd9\x95\xcf\x02\xee?'
p3908
tp3909
Rp3910
sg14
g4
(g8
S'\x0e\xf0\x8a\xc7\xb9C\xef?'
p3911
tp3912
Rp3913
ssS'wgEncodeAwgTfbsSydhHct116Tcf7l2UcdUniPk'
p3914
(dp3915
g3
g4
(g8
S'V\xb9\xbe\xf6\xa6\xbc\xeb?'
p3916
tp3917
Rp3918
sg14
g4
(g8
S'\xdcQ\xac\x9c\xf9\xb6\xeb?'
p3919
tp3920
Rp3921
ssS'wgEncodeAwgTfbsSydhK562Atf106325UniPk'
p3922
(dp3923
g3
g4
(g8
S'\xe94}\x8c<\x15\xed?'
p3924
tp3925
Rp3926
sg14
g4
(g8
S'\x83hH\xf3\xbd\xed\xec?'
p3927
tp3928
Rp3929
ssS'wgEncodeAwgTfbsSydhHepg2CebpbForsklnUniPk'
p3930
(dp3931
g3
g4
(g8
S'\xb7\xfc,\xf5\x18+\xee?'
p3932
tp3933
Rp3934
sg14
g4
(g8
S'\xa3\x00z\x8e\xa9\x9c\xee?'
p3935
tp3936
Rp3937
ssS'wgEncodeAwgTfbsUwHek293CtcfUniPk'
p3938
(dp3939
g3
g4
(g8
S'_\xf4G\xde\xbf2\xee?'
p3940
tp3941
Rp3942
sg14
g4
(g8
S'\xffy\x1a@/_\xef?'
p3943
tp3944
Rp3945
ssS'wgEncodeAwgTfbsHaibHct116Yy1sc281V0416101UniPk'
p3946
(dp3947
g3
g4
(g8
S'\xc5\x11\xf2\xa8v\xde\xeb?'
p3948
tp3949
Rp3950
sg14
g4
(g8
S'Z\xaa(uY:\xec?'
p3951
tp3952
Rp3953
ssS'wgEncodeAwgTfbsHaibH1hescNrsfV0416102UniPk'
p3954
(dp3955
g3
g4
(g8
S'ac\xeb\x8f\x19\x17\xee?'
p3956
tp3957
Rp3958
sg14
g4
(g8
S'\x07P-\x12\xd6U\xee?'
p3959
tp3960
Rp3961
ssS'wgEncodeAwgTfbsHaibGm12878Nficsc81335V0422111UniPk'
p3962
(dp3963
g3
g4
(g8
S'v\xde\xab\xab\xd4\xbb\xeb?'
p3964
tp3965
Rp3966
sg14
g4
(g8
S'>1\xd2\x83\xd8\x19\xec?'
p3967
tp3968
Rp3969
ssS'wgEncodeAwgTfbsUtaHepg2CmycUniPk'
p3970
(dp3971
g3
g4
(g8
S'p;<\xc3\xe2\xb2\xeb?'
p3972
tp3973
Rp3974
sg14
g4
(g8
S'\x00\x82\xd1N\x08|\xeb?'
p3975
tp3976
Rp3977
ssS'wgEncodeAwgTfbsSydhHepg2CjunIggrabUniPk'
p3978
(dp3979
g3
g4
(g8
S'keH\x95M\xf7\xee?'
p3980
tp3981
Rp3982
sg14
g4
(g8
S'\xa7Q8\xf4\xf9\t\xef?'
p3983
tp3984
Rp3985
ssS'wgEncodeAwgTfbsHaibA549Sin3ak20V0422111Etoh02UniPk'
p3986
(dp3987
g3
g4
(g8
S'\xccQM\x8d\xf9\xa0\xe8?'
p3988
tp3989
Rp3990
sg14
g4
(g8
S'\x9eW\x95\x1b\x00\xa4\xe8?'
p3991
tp3992
Rp3993
ssS'wgEncodeAwgTfbsSydhGm18951NfkbTnfaIggrabUniPk'
p3994
(dp3995
g3
g4
(g8
S'\x0c\x91\x99Y\xbf\xe1\xea?'
p3996
tp3997
Rp3998
sg14
g4
(g8
S'>?\xa4@-J\xeb?'
p3999
tp4000
Rp4001
ssS'wgEncodeAwgTfbsSydhHelas3Ap2gammaUniPk'
p4002
(dp4003
g3
g4
(g8
S'z;?\xa1\x928\xec?'
p4004
tp4005
Rp4006
sg14
g4
(g8
S'\xe8&|\x0b\xb4\\\xec?'
p4007
tp4008
Rp4009
ssS'wgEncodeAwgTfbsHaibGm12878Pol2Pcr2xUniPk'
p4010
(dp4011
g3
g4
(g8
S'\x83\xa6u\xf0T\xcc\xe8?'
p4012
tp4013
Rp4014
sg14
g4
(g8
S'\xa7y_!\x0f_\xe9?'
p4015
tp4016
Rp4017
ssS'wgEncodeAwgTfbsHaibGm12878Elf1sc631V0416101UniPk'
p4018
(dp4019
g3
g4
(g8
S'#\xe5o\xf2\xad\xf7\xeb?'
p4020
tp4021
Rp4022
sg14
g4
(g8
S'\xbfuk\xca{\x1d\xec?'
p4023
tp4024
Rp4025
ssS'wgEncodeAwgTfbsHaibK562Six5Pcr1xUniPk'
p4026
(dp4027
g3
g4
(g8
S'\xce7\xd7\xcd7\xd7\xeb?'
p4028
tp4029
Rp4030
sg14
g4
(g8
S"\x84\xf7'/\xa2\xd2\xeb?"
p4031
tp4032
Rp4033
ssS'wgEncodeAwgTfbsSydhK562Mafkab50322IggrabUniPk'
p4034
(dp4035
g3
g4
(g8
S'\x90\xf0\xf7\x1diY\xee?'
p4036
tp4037
Rp4038
sg14
g4
(g8
S'}%\xe7\x02G\xf0\xee?'
p4039
tp4040
Rp4041
ssS'wgEncodeAwgTfbsUtaHelas3CmycUniPk'
p4042
(dp4043
g3
g4
(g8
S'^K3\xc5\xe3\xc6\xeb?'
p4044
tp4045
Rp4046
sg14
g4
(g8
S'\xa3z\x80\xaa\xf3\xf1\xeb?'
p4047
tp4048
Rp4049
ssS'wgEncodeAwgTfbsSydhGm12878Yy1UniPk'
p4050
(dp4051
g3
g4
(g8
S'\x02\xdb\x92\xba\xb3g\xec?'
p4052
tp4053
Rp4054
sg14
g4
(g8
S'\x1a\xea\xd5~n\x14\xec?'
p4055
tp4056
Rp4057
ssS'wgEncodeAwgTfbsSydhMcf10aesPol2Etoh01UniPk'
p4058
(dp4059
g3
g4
(g8
S'zg\xe1-}\x8f\xe9?'
p4060
tp4061
Rp4062
sg14
g4
(g8
S'f\x8d\xa3\x8e\x0b\x92\xe9?'
p4063
tp4064
Rp4065
ssS'wgEncodeAwgTfbsHaibH1hescPol24h8V0416102UniPk'
p4066
(dp4067
g3
g4
(g8
S'\xa9z\x11\xedw\x0f\xe9?'
p4068
tp4069
Rp4070
sg14
g4
(g8
S'&\xf4b\t%`\xe9?'
p4071
tp4072
Rp4073
ssS'wgEncodeAwgTfbsUtaNhekCtcfUniPk'
p4074
(dp4075
g3
g4
(g8
S'\x19z\x1cK3[\xed?'
p4076
tp4077
Rp4078
sg14
g4
(g8
S'\xfbc_\x1bd\xdd\xee?'
p4079
tp4080
Rp4081
ssS'wgEncodeAwgTfbsBroadHsmmEzh239875UniPk'
p4082
(dp4083
g3
g4
(g8
S'\xbaheW\xd1\x1e\xe6?'
p4084
tp4085
Rp4086
sg14
g4
(g8
S'\xb9UF\x82:\xe6\xe6?'
p4087
tp4088
Rp4089
ssS'wgEncodeAwgTfbsSydhPbdefetalGata1UcdUniPk'
p4090
(dp4091
g3
g4
(g8
S'\xdfK\xe6\x95y\xc7\xed?'
p4092
tp4093
Rp4094
sg14
g4
(g8
S'b\x1f\xfb\xeb&\xdf\xed?'
p4095
tp4096
Rp4097
ssS'wgEncodeAwgTfbsSydhK562Pol2Ifna6hUniPk'
p4098
(dp4099
g3
g4
(g8
S'\x8fC\xd8\xb1LT\xe9?'
p4100
tp4101
Rp4102
sg14
g4
(g8
S'\x14\xc7\xa0\xbagb\xe9?'
p4103
tp4104
Rp4105
ssS'wgEncodeAwgTfbsSydhK562CmycUniPk'
p4106
(dp4107
g3
g4
(g8
S'\xcc_q\xc3\xb5\xf5\xeb?'
p4108
tp4109
Rp4110
sg14
g4
(g8
S'\xff\xf0\xechtr\xeb?'
p4111
tp4112
Rp4113
ssS'wgEncodeAwgTfbsUtaMcf7Pol2UniPk'
p4114
(dp4115
g3
g4
(g8
S'\x18\xc1\x10\xee\x18"\xea?'
p4116
tp4117
Rp4118
sg14
g4
(g8
S'Z\xc4\x8cZ\xcfO\xea?'
p4119
tp4120
Rp4121
ssS'wgEncodeAwgTfbsSydhHelas3MafkIggrabUniPk'
p4122
(dp4123
g3
g4
(g8
S'\xae\xe9!)?S\xed?'
p4124
tp4125
Rp4126
sg14
g4
(g8
S'[\x83U\xa5\xcb\xf2\xed?'
p4127
tp4128
Rp4129
ssS'wgEncodeAwgTfbsSydhH1hescZnf143IggrabUniPk'
p4130
(dp4131
g3
g4
(g8
S'\xca_T4\xf7/\xec?'
p4132
tp4133
Rp4134
sg14
g4
(g8
S'\x0cV6B\x1e\xc1\xed?'
p4135
tp4136
Rp4137
ssS'wgEncodeAwgTfbsHaibK562Pol2V0416101UniPk'
p4138
(dp4139
g3
g4
(g8
S'\xb1\xaa\xb2<))\xe9?'
p4140
tp4141
Rp4142
sg14
g4
(g8
S'\xfad\xc5\xa1\xd0\x93\xe9?'
p4143
tp4144
Rp4145
ssS'wgEncodeAwgTfbsBroadNhaEzh239875UniPk'
p4146
(dp4147
g3
g4
(g8
S'\t\xa47\xe8\x1d\xfe\xe8?'
p4148
tp4149
Rp4150
sg14
g4
(g8
S'\xcc\x17\xc3?qm\xe9?'
p4151
tp4152
Rp4153
ssS'wgEncodeAwgTfbsHaibHepg2Sp1Pcr1xUniPk'
p4154
(dp4155
g3
g4
(g8
S'\xde\xb3-\xb9k\xfa\xeb?'
p4156
tp4157
Rp4158
sg14
g4
(g8
S'\x1f\xbd\x15q\x85\x19\xec?'
p4159
tp4160
Rp4161
ssS'wgEncodeAwgTfbsHaibGm12878Yy1sc281Pcr1xUniPk'
p4162
(dp4163
g3
g4
(g8
S'm\xe9~1aW\xec?'
p4164
tp4165
Rp4166
sg14
g4
(g8
S'<\xa9~.<\xcc\xec?'
p4167
tp4168
Rp4169
ssS'wgEncodeAwgTfbsSydhHelas3Hae2f1UniPk'
p4170
(dp4171
g3
g4
(g8
S'\xc1\xd7\xec\xf7\x16I\xec?'
p4172
tp4173
Rp4174
sg14
g4
(g8
S'\xefcp\xe2\x03i\xec?'
p4175
tp4176
Rp4177
ssS'wgEncodeAwgTfbsHaibK562Usf1V0416101UniPk'
p4178
(dp4179
g3
g4
(g8
S'\x9b0\xbf\xfb\xb7\xcd\xee?'
p4180
tp4181
Rp4182
sg14
g4
(g8
S'\xc2\xd9\xce\xe1U\xc0\xee?'
p4183
tp4184
Rp4185
ssS'wgEncodeAwgTfbsHaibA549Ets1V0422111Etoh02UniPk'
p4186
(dp4187
g3
g4
(g8
S'\xec\xe7\xe6<\x81\xc4\xe9?'
p4188
tp4189
Rp4190
sg14
g4
(g8
S'\xc9\xbf\x0c\x14\xbd\x00\xea?'
p4191
tp4192
Rp4193
ssS'wgEncodeAwgTfbsSydhGm12878NfkbTnfaIggrabUniPk'
p4194
(dp4195
g3
g4
(g8
S"\x15\x1eN\xc5\xd3'\xec?"
p4196
tp4197
Rp4198
sg14
g4
(g8
S'\x05\xb9\xc4\xc2\xabX\xec?'
p4199
tp4200
Rp4201
ssS'wgEncodeAwgTfbsSydhHepg2JundIggrabUniPk'
p4202
(dp4203
g3
g4
(g8
S'<\x81X  \x1a\xef?'
p4204
tp4205
Rp4206
sg14
g4
(g8
S'P\xc0\x06,\xcc \xef?'
p4207
tp4208
Rp4209
ssS'wgEncodeAwgTfbsSydhK562Tblr1nb600270IggrabUniPk'
p4210
(dp4211
g3
g4
(g8
S'\xd3\xed\xfa0\xba:\xec?'
p4212
tp4213
Rp4214
sg14
g4
(g8
S'^\xa5\x9e~\xb8_\xec?'
p4215
tp4216
Rp4217
ssS'wgEncodeAwgTfbsHaibHepg2RxraPcr1xUniPk'
p4218
(dp4219
g3
g4
(g8
S'\x9c\xbe\x87\xa5\xdd\x88\xec?'
p4220
tp4221
Rp4222
sg14
g4
(g8
S'\xfb\xd3\x18\xd7U\xce\xec?'
p4223
tp4224
Rp4225
ssS'wgEncodeAwgTfbsSydhK562JundIggrabUniPk'
p4226
(dp4227
g3
g4
(g8
S'\xdc\xd3}\xc1\x0eW\xed?'
p4228
tp4229
Rp4230
sg14
g4
(g8
S'\x98\xfb\xe5}\xc5\x8f\xed?'
p4231
tp4232
Rp4233
ssS'wgEncodeAwgTfbsSydhHelas3Spt20UniPk'
p4234
(dp4235
g3
g4
(g8
S'\xd0\x17\xd6,[\t\xe6?'
p4236
tp4237
Rp4238
sg14
g4
(g8
S'\x18W\xba>\x08\xc1\xe5?'
p4239
tp4240
Rp4241
ssS'wgEncodeAwgTfbsUtaK562CtcfUniPk'
p4242
(dp4243
g3
g4
(g8
S'\n\x0f\x1e\x87*\xfd\xed?'
p4244
tp4245
Rp4246
sg14
g4
(g8
S'\xbf\x83\x1d\x89\xaev\xef?'
p4247
tp4248
Rp4249
ssS'wgEncodeAwgTfbsSydhHelas3Tcf7l2UcdUniPk'
p4250
(dp4251
g3
g4
(g8
S'\xa8 \xfbM\xae\x05\xea?'
p4252
tp4253
Rp4254
sg14
g4
(g8
S'E\xea\\\xcfCy\xea?'
p4255
tp4256
Rp4257
ssS'wgEncodeAwgTfbsHaibA549GrPcr1xDex50nmUniPk'
p4258
(dp4259
g3
g4
(g8
S'\\\x91\xf0\xf4\xcb\xb6\xec?'
p4260
tp4261
Rp4262
sg14
g4
(g8
S'\x02\xa0w\xbd\x197\xed?'
p4263
tp4264
Rp4265
ssS'wgEncodeAwgTfbsSydhK562CmycIfng6hUniPk'
p4266
(dp4267
g3
g4
(g8
S' v9\xeb\xd0\xd4\xea?'
p4268
tp4269
Rp4270
sg14
g4
(g8
S'\xb1\xcc\x16.\x0f+\xeb?'
p4271
tp4272
Rp4273
ssS'wgEncodeAwgTfbsSydhGm12892NfkbTnfaIggrabUniPk'
p4274
(dp4275
g3
g4
(g8
S'\x92\xa3;\t\xe7\xe6\xeb?'
p4276
tp4277
Rp4278
sg14
g4
(g8
S',w\x07\xfcF+\xec?'
p4279
tp4280
Rp4281
ssS'wgEncodeAwgTfbsSydhK562Pol2Ifng6hUniPk'
p4282
(dp4283
g3
g4
(g8
S'\x11\xc7\xf2\xd2r\x8a\xe9?'
p4284
tp4285
Rp4286
sg14
g4
(g8
S'\x04h\x9b\xb6\xb1\xd0\xe9?'
p4287
tp4288
Rp4289
ssS'wgEncodeAwgTfbsUtaMcf7CmycSerumstimUniPk'
p4290
(dp4291
g3
g4
(g8
S'\xb6\xb7d\x82\xff\x97\xea?'
p4292
tp4293
Rp4294
sg14
g4
(g8
S'\x81\xe1Y2\x81\xf3\xea?'
p4295
tp4296
Rp4297
ssS'wgEncodeAwgTfbsSydhK562Ubtfsab1404509IggmusUniPk'
p4298
(dp4299
g3
g4
(g8
S'}\xac\x81\xf0\xec\x9b\xea?'
p4300
tp4301
Rp4302
sg14
g4
(g8
S'4\xf1\x90\x87\xc6\x9b\xea?'
p4303
tp4304
Rp4305
ssS'wgEncodeAwgTfbsUtaK562CmycUniPk'
p4306
(dp4307
g3
g4
(g8
S'Z\xef/[l1\xec?'
p4308
tp4309
Rp4310
sg14
g4
(g8
S'\xd7F3\xfa\xa1/\xec?'
p4311
tp4312
Rp4313
ssS'wgEncodeAwgTfbsUtaMcf7CtcfVehUniPk'
p4314
(dp4315
g3
g4
(g8
S'J4)H\xd8\x83\xed?'
p4316
tp4317
Rp4318
sg14
g4
(g8
S'\xe4\xc4\x13\x9e\x1a\xfc\xee?'
p4319
tp4320
Rp4321
ssS'wgEncodeAwgTfbsSydhMcf10aesE2f4TamHvdUniPk'
p4322
(dp4323
g3
g4
(g8
S'\x81\x02\x87\x8a\xbe7\xed?'
p4324
tp4325
Rp4326
sg14
g4
(g8
S'^ \xf2\xb1y \xed?'
p4327
tp4328
Rp4329
ssS'wgEncodeAwgTfbsHaibGm12878Sp1Pcr1xUniPk'
p4330
(dp4331
g3
g4
(g8
S'Z?\x13\xac\xac\x99\xeb?'
p4332
tp4333
Rp4334
sg14
g4
(g8
S'\xd6\xc5\xf667l\xeb?'
p4335
tp4336
Rp4337
ssS'wgEncodeAwgTfbsHaibGm12878Pax5n19Pcr1xUniPk'
p4338
(dp4339
g3
g4
(g8
S'\x882\xbfv\xacM\xeb?'
p4340
tp4341
Rp4342
sg14
g4
(g8
S'\xaeT\xfd\xdcD\xde\xeb?'
p4343
tp4344
Rp4345
ssS'wgEncodeAwgTfbsSydhImr90Rad21IggrabUniPk'
p4346
(dp4347
g3
g4
(g8
S'\xc4\x14\xaa \xa4\xab\xed?'
p4348
tp4349
Rp4350
sg14
g4
(g8
S'\xc2\x8a@\xab\xa9\xc3\xee?'
p4351
tp4352
Rp4353
ssS'wgEncodeAwgTfbsSydhK562Brf1UniPk'
p4354
(dp4355
g3
g4
(g8
S'\x0cJ\x85\x89\xf7#\xe5?'
p4356
tp4357
Rp4358
sg14
g4
(g8
S'v\x08\xdcX\x06\xa5\xe0?'
p4359
tp4360
Rp4361
ssS'wgEncodeAwgTfbsHaibK562Zbtb33Pcr1xUniPk'
p4362
(dp4363
g3
g4
(g8
S'\xc5\xcdb\x04O\xd5\xeb?'
p4364
tp4365
Rp4366
sg14
g4
(g8
S'\xfe\xd4\x89R8\xf5\xeb?'
p4367
tp4368
Rp4369
ssS'wgEncodeAwgTfbsSydhGm12878Mazab85725IggmusUniPk'
p4370
(dp4371
g3
g4
(g8
S'\xca\xbf\x1cg<\x93\xea?'
p4372
tp4373
Rp4374
sg14
g4
(g8
S'\x91\x10\xbcI\xeb\xc4\xea?'
p4375
tp4376
Rp4377
ssS'wgEncodeAwgTfbsHaibK562Ctcflsc98982V0416101UniPk'
p4378
(dp4379
g3
g4
(g8
S'\xd58\xbd\xfb\xa6\xb5\xed?'
p4380
tp4381
Rp4382
sg14
g4
(g8
S',oS\xc4\xc0\xf5\xee?'
p4383
tp4384
Rp4385
ssS'wgEncodeAwgTfbsSydhGm12878E2f4IggmusUniPk'
p4386
(dp4387
g3
g4
(g8
S'JMd\xbcw\x03\xeb?'
p4388
tp4389
Rp4390
sg14
g4
(g8
S'\xfe\xd1\xc76\x8ae\xeb?'
p4391
tp4392
Rp4393
ssS'wgEncodeAwgTfbsHaibA549Foxa1V0416102Dex100nmUniPk'
p4394
(dp4395
g3
g4
(g8
S'\xee0\x89\xe82\xd2\xec?'
p4396
tp4397
Rp4398
sg14
g4
(g8
S'6\xecU\xc8\xef\x94\xed?'
p4399
tp4400
Rp4401
ssS'wgEncodeAwgTfbsSydhH1hescCmycIggrabUniPk'
p4402
(dp4403
g3
g4
(g8
S'\xc2,\n\xb2\x9eD\xeb?'
p4404
tp4405
Rp4406
sg14
g4
(g8
S'\x9c\xc9"\xda\xe0\xd6\xeb?'
p4407
tp4408
Rp4409
ssS'wgEncodeAwgTfbsSydhMcf10aesStat3Etoh01UniPk'
p4410
(dp4411
g3
g4
(g8
S'r\x95/>\xc7\xae\xed?'
p4412
tp4413
Rp4414
sg14
g4
(g8
S'\xd7\xda\xfdH\x85\x04\xee?'
p4415
tp4416
Rp4417
ssS'wgEncodeAwgTfbsBroadNhekCtcfUniPk'
p4418
(dp4419
g3
g4
(g8
S'\xee\xccu\xb2\x84\xe9\xed?'
p4420
tp4421
Rp4422
sg14
g4
(g8
S'f\xae!G>\xd8\xee?'
p4423
tp4424
Rp4425
ssS'wgEncodeAwgTfbsHaibH1hescTaf1V0416102UniPk'
p4426
(dp4427
g3
g4
(g8
S'\xea\x90rs\xafM\xea?'
p4428
tp4429
Rp4430
sg14
g4
(g8
S'\xaf,K\x92\x8c\xf0\xe9?'
p4431
tp4432
Rp4433
ssS'wgEncodeAwgTfbsUwGm12872CtcfUniPk'
p4434
(dp4435
g3
g4
(g8
S'Hc?\xdf\x0f\x00\xee?'
p4436
tp4437
Rp4438
sg14
g4
(g8
S'\xaa\x8b\x8cs\xbb\x1a\xef?'
p4439
tp4440
Rp4441
ssS'wgEncodeAwgTfbsSydhK562CmycIfna30UniPk'
p4442
(dp4443
g3
g4
(g8
S'P\xbaA\xfe\x14\x0e\xeb?'
p4444
tp4445
Rp4446
sg14
g4
(g8
S'\x84\xae\x16\nP\xf5\xea?'
p4447
tp4448
Rp4449
ssS'wgEncodeAwgTfbsSydhK562NfyaUniPk'
p4450
(dp4451
g3
g4
(g8
S'\x96\xdf\xc2\xe6\xf9!\xee?'
p4452
tp4453
Rp4454
sg14
g4
(g8
S"\x01h'8cm\xee?"
p4455
tp4456
Rp4457
ssS'wgEncodeAwgTfbsSydhHelas3E2f6UniPk'
p4458
(dp4459
g3
g4
(g8
S'\x9dQ,\xde\x99=\xea?'
p4460
tp4461
Rp4462
sg14
g4
(g8
S'}T\x05A\xd8\xff\xe9?'
p4463
tp4464
Rp4465
ssS'wgEncodeAwgTfbsHaibH1hescPol2V0416102UniPk'
p4466
(dp4467
g3
g4
(g8
S'\xab\x92\xb0\xbc\xa3"\xe9?'
p4468
tp4469
Rp4470
sg14
g4
(g8
S"\xaf'\x01\x8c\xf24\xe9?"
p4471
tp4472
Rp4473
ssS'wgEncodeAwgTfbsBroadNhekPol2bUniPk'
p4474
(dp4475
g3
g4
(g8
S'.\xcc\xab\x8d\r\x7f\xe7?'
p4476
tp4477
Rp4478
sg14
g4
(g8
S'%t\xf3\xdbB\xc2\xe7?'
p4479
tp4480
Rp4481
ssS'wgEncodeAwgTfbsSydhHuvecCjunUniPk'
p4482
(dp4483
g3
g4
(g8
S'+\xac\xdb~\x97\xeb\xee?'
p4484
tp4485
Rp4486
sg14
g4
(g8
S'Q\xa1Z\x15d\xd1\xee?'
p4487
tp4488
Rp4489
ssS'wgEncodeAwgTfbsUtaA549Pol2UniPk'
p4490
(dp4491
g3
g4
(g8
S'f\x08\x84]]c\xea?'
p4492
tp4493
Rp4494
sg14
g4
(g8
S'\xce;j\xbb\x81\x90\xea?'
p4495
tp4496
Rp4497
ssS'wgEncodeAwgTfbsUwGm12875CtcfUniPk'
p4498
(dp4499
g3
g4
(g8
S'\xe4Q_Y\xeb3\xee?'
p4500
tp4501
Rp4502
sg14
g4
(g8
S'e\x0e\x98\xd5\xafZ\xef?'
p4503
tp4504
Rp4505
ssS'wgEncodeAwgTfbsSydhK562Stat2Ifna6hUniPk'
p4506
(dp4507
g3
g4
(g8
S' Y\xbf\x852+\xec?'
p4508
tp4509
Rp4510
sg14
g4
(g8
S'\xd4\x18\x0e\x81\x1e\xe0\xeb?'
p4511
tp4512
Rp4513
ssS'wgEncodeAwgTfbsSydhMcf10aesStat3Etoh01cUniPk'
p4514
(dp4515
g3
g4
(g8
S'B\xb9\xa2%\xc7\x1d\xee?'
p4516
tp4517
Rp4518
sg14
g4
(g8
S'\xa9\xb6\x88\xdc\xfdq\xee?'
p4519
tp4520
Rp4521
ssS'wgEncodeAwgTfbsBroadHsmmtCtcfUniPk'
p4522
(dp4523
g3
g4
(g8
S'\x0c\x1dt\xc0\xc0\xfd\xed?'
p4524
tp4525
Rp4526
sg14
g4
(g8
S'\xc5\xff\xd7&\xda\xf6\xee?'
p4527
tp4528
Rp4529
ssS'wgEncodeAwgTfbsSydhH1hescNrf1IggrabUniPk'
p4530
(dp4531
g3
g4
(g8
S'\x8b3\xa8\r$\xd5\xed?'
p4532
tp4533
Rp4534
sg14
g4
(g8
S'/\xd2\x9d\xa7\xaf#\xee?'
p4535
tp4536
Rp4537
ssS'wgEncodeAwgTfbsSydhGm12878Elk112771IggmusUniPk'
p4538
(dp4539
g3
g4
(g8
S'\xb5\xff\x1e\xa0r\xc3\xeb?'
p4540
tp4541
Rp4542
sg14
g4
(g8
S'\x7f\x91M\xc6\xe8\x19\xec?'
p4543
tp4544
Rp4545
ssS'wgEncodeAwgTfbsUwNhlfCtcfUniPk'
p4546
(dp4547
g3
g4
(g8
S"\x92\xf3\x16\x9c'\xf5\xed?"
p4548
tp4549
Rp4550
sg14
g4
(g8
S'\x1cH\xb9\xa73\xe2\xee?'
p4551
tp4552
Rp4553
ssS'wgEncodeAwgTfbsSydhHelas3Zzz3UniPk'
p4554
(dp4555
g3
g4
(g8
S'\x9d\xd5\x85\xfa\x8c\x90\xeb?'
p4556
tp4557
Rp4558
sg14
g4
(g8
S'!\xbcn\x15\xc2\xeb\xe6?'
p4559
tp4560
Rp4561
ssS'wgEncodeAwgTfbsHaibGm12891Pol2Pcr1xUniPk'
p4562
(dp4563
g3
g4
(g8
S'\xb0&\x99\xeb;\xd9\xe8?'
p4564
tp4565
Rp4566
sg14
g4
(g8
S'\xa6\xe4\xba\x96S\xdd\xe8?'
p4567
tp4568
Rp4569
ssS'wgEncodeAwgTfbsSydhK562Irf1Ifng6hUniPk'
p4570
(dp4571
g3
g4
(g8
S'\x8a\xd69\xacn\xbd\xeb?'
p4572
tp4573
Rp4574
sg14
g4
(g8
S'\x04\xf9_+G\xf4\xeb?'
p4575
tp4576
Rp4577
ssS'wgEncodeAwgTfbsUtaMcf7CmycEstroUniPk'
p4578
(dp4579
g3
g4
(g8
S's\x96=Qr\xa8\xea?'
p4580
tp4581
Rp4582
sg14
g4
(g8
S'p8\x7f+\xd1\xf3\xea?'
p4583
tp4584
Rp4585
ssS'wgEncodeAwgTfbsUtaGm12878Pol2UniPk'
p4586
(dp4587
g3
g4
(g8
S'`*\xb1B\xb3L\xe9?'
p4588
tp4589
Rp4590
sg14
g4
(g8
S'l\xb7\xad-\xe7\x8f\xe9?'
p4591
tp4592
Rp4593
ssS'wgEncodeAwgTfbsHaibA549GabpV0422111Etoh02UniPk'
p4594
(dp4595
g3
g4
(g8
S'^\xab\x14\xe4\xc2\xbc\xeb?'
p4596
tp4597
Rp4598
sg14
g4
(g8
S'\xbaV\x16br\x9b\xeb?'
p4599
tp4600
Rp4601
ssS'wgEncodeAwgTfbsHaibHepg2Usf1Pcr1xUniPk'
p4602
(dp4603
g3
g4
(g8
S'\x0b\xbfK\xdb\xf4\x12\xef?'
p4604
tp4605
Rp4606
sg14
g4
(g8
S'1\x08\x11\xd5t\x02\xef?'
p4607
tp4608
Rp4609
ssS'wgEncodeAwgTfbsSydhH1hescJundIggrabUniPk'
p4610
(dp4611
g3
g4
(g8
S'\x81\xbf\xe1\x0b@\xdb\xec?'
p4612
tp4613
Rp4614
sg14
g4
(g8
S'\x95\xfcq>\xd6G\xed?'
p4615
tp4616
Rp4617
ssS'wgEncodeAwgTfbsUwHacCtcfUniPk'
p4618
(dp4619
g3
g4
(g8
S'p~\xe8\xe7r\xf1\xed?'
p4620
tp4621
Rp4622
sg14
g4
(g8
S'\xf0\xe2\xfa\xff\xd2\x00\xef?'
p4623
tp4624
Rp4625
ssS'wgEncodeAwgTfbsSydhNb4MaxUniPk'
p4626
(dp4627
g3
g4
(g8
S'`{m\xc0\xd0\x95\xec?'
p4628
tp4629
Rp4630
sg14
g4
(g8
S'O#\xb9\xeeze\xec?'
p4631
tp4632
Rp4633
ssS'wgEncodeAwgTfbsBroadH1hescChd1a301218aUniPk'
p4634
(dp4635
g3
g4
(g8
S'"\xc1\xe3\x18\xa3\x1c\xe8?'
p4636
tp4637
Rp4638
sg14
g4
(g8
S'>MNk[?\xe8?'
p4639
tp4640
Rp4641
ssS'wgEncodeAwgTfbsUtaHuvecCtcfUniPk'
p4642
(dp4643
g3
g4
(g8
S'Wo\xd4F\x16\xa2\xee?'
p4644
tp4645
Rp4646
sg14
g4
(g8
S'_\xeb\x8e\x87*\x9c\xef?'
p4647
tp4648
Rp4649
ssS'wgEncodeAwgTfbsHaibK562Hdac2sc6296V0416102UniPk'
p4650
(dp4651
g3
g4
(g8
S'GVn\xe1o\xf5\xea?'
p4652
tp4653
Rp4654
sg14
g4
(g8
S'^\xd8o\xbb\xe3)\xeb?'
p4655
tp4656
Rp4657
ssS'wgEncodeAwgTfbsHaibK562E2f6V0416102UniPk'
p4658
(dp4659
g3
g4
(g8
S'\xa7D\x9am\x83\xdc\xeb?'
p4660
tp4661
Rp4662
sg14
g4
(g8
S'\xc6*\xc0Z\xf6\xcf\xeb?'
p4663
tp4664
Rp4665
ssS'wgEncodeAwgTfbsSydhK562Tr4UcdUniPk'
p4666
(dp4667
g3
g4
(g8
S'\xf2\x8f\xce]_C\xe8?'
p4668
tp4669
Rp4670
sg14
g4
(g8
S'\xb64\xb4\x83\x9d\xf4\xe5?'
p4671
tp4672
Rp4673
ssS'wgEncodeAwgTfbsHaibA549Atf3V0422111Etoh02UniPk'
p4674
(dp4675
g3
g4
(g8
S'@\xd5\xa7R\xe5k\xea?'
p4676
tp4677
Rp4678
sg14
g4
(g8
S'n\x96tMg\xca\xea?'
p4679
tp4680
Rp4681
ssS'wgEncodeAwgTfbsHaibHepg2Foxa1sc101058V0416101UniPk'
p4682
(dp4683
g3
g4
(g8
S'\xf2\x1d\x9fA\x9e\x18\xee?'
p4684
tp4685
Rp4686
sg14
g4
(g8
S'\xd1T\xe4\n\xa6:\xee?'
p4687
tp4688
Rp4689
ssS'wgEncodeAwgTfbsSydhHuvecCfosUcdUniPk'
p4690
(dp4691
g3
g4
(g8
S'Y\xdc\xe2Rw|\xee?'
p4692
tp4693
Rp4694
sg14
g4
(g8
S'R7{@\x0b\x82\xee?'
p4695
tp4696
Rp4697
ssS'wgEncodeAwgTfbsSydhHelas3Bdp1UniPk'
p4698
(dp4699
g3
g4
(g8
S'G\xbe\x88\xad\x1a2\xe5?'
p4700
tp4701
Rp4702
sg14
g4
(g8
S'\xa0\xa4\xfez\x04\x9f\xe3?'
p4703
tp4704
Rp4705
ssS'wgEncodeAwgTfbsBroadHuvecCtcfUniPk'
p4706
(dp4707
g3
g4
(g8
S'\tMl\xca\xa0*\xee?'
p4708
tp4709
Rp4710
sg14
g4
(g8
S'u\xc7T\xbc\x9d+\xef?'
p4711
tp4712
Rp4713
ssS'wgEncodeAwgTfbsHaibHepg2Tead4sc101184V0422111UniPk'
p4714
(dp4715
g3
g4
(g8
S'^hM3\xa7y\xec?'
p4716
tp4717
Rp4718
sg14
g4
(g8
S'\x1c\xbd\xc1\xc5?v\xec?'
p4719
tp4720
Rp4721
ssS'wgEncodeAwgTfbsBroadNhlfEzh239875UniPk'
p4722
(dp4723
g3
g4
(g8
S'\xf3\xc6\xfb\xd3S\xc8\xe8?'
p4724
tp4725
Rp4726
sg14
g4
(g8
S'\xc0\x8cp8G\x0b\xe9?'
p4727
tp4728
Rp4729
ssS'wgEncodeAwgTfbsBroadNhdfadEzh239875UniPk'
p4730
(dp4731
g3
g4
(g8
S'\xcc\xd8\xfd{\xfb=\xe9?'
p4732
tp4733
Rp4734
sg14
g4
(g8
S'\xe6\r\xb8\xb4\xe4{\xe9?'
p4735
tp4736
Rp4737
ssS'wgEncodeAwgTfbsSydhK562Sirt6UniPk'
p4738
(dp4739
g3
g4
(g8
S'\x0c6\xfdiCW\xeb?'
p4740
tp4741
Rp4742
sg14
g4
(g8
S"Z\x0c&\xe2'\x94\xea?"
p4743
tp4744
Rp4745
ssS'wgEncodeAwgTfbsHaibGm12892Pol24h8V0416102UniPk'
p4746
(dp4747
g3
g4
(g8
S'\xf1\xac\x0f\xac\n\xa3\xe8?'
p4748
tp4749
Rp4750
sg14
g4
(g8
S'\xad\x0e\x1c7C\xe7\xe8?'
p4751
tp4752
Rp4753
ssS'wgEncodeAwgTfbsSydhHelas3E2f4UniPk'
p4754
(dp4755
g3
g4
(g8
S'\xe2\xda\xde{\x0e\x1b\xec?'
p4756
tp4757
Rp4758
sg14
g4
(g8
S'H\x87\xca\x0c\x97\x07\xec?'
p4759
tp4760
Rp4761
ssS'wgEncodeAwgTfbsSydhH1hescMaxUcdUniPk'
p4762
(dp4763
g3
g4
(g8
S'17q\xa3\x1a\xd6\xec?'
p4764
tp4765
Rp4766
sg14
g4
(g8
S']\xe0\nZ)\x05\xed?'
p4767
tp4768
Rp4769
ssS'wgEncodeAwgTfbsUtaGlioblaCtcfUniPk'
p4770
(dp4771
g3
g4
(g8
S'\x14S&\x07\xcft\xed?'
p4772
tp4773
Rp4774
sg14
g4
(g8
S'\xec\x14^\xear\x08\xef?'
p4775
tp4776
Rp4777
ssS'wgEncodeAwgTfbsUwAg09319CtcfUniPk'
p4778
(dp4779
g3
g4
(g8
S'[\xc7V`l\xe8\xed?'
p4780
tp4781
Rp4782
sg14
g4
(g8
S"\x9a2\xc7\x85'4\xef?"
p4783
tp4784
Rp4785
ssS'wgEncodeAwgTfbsHaibGm12878Ebf1sc137065Pcr1xUniPk'
p4786
(dp4787
g3
g4
(g8
S'\xad\x83\x1b\xbb\xc7d\xec?'
p4788
tp4789
Rp4790
sg14
g4
(g8
S'\xc6(\x0c]`\x86\xec?'
p4791
tp4792
Rp4793
ssS'wgEncodeAwgTfbsSydhK562Rad21UniPk'
p4794
(dp4795
g3
g4
(g8
S'P\x840`\xf5\xca\xee?'
p4796
tp4797
Rp4798
sg14
g4
(g8
S'\xa2\xb80\x92\xb9\xbb\xef?'
p4799
tp4800
Rp4801
ssS'wgEncodeAwgTfbsSydhGm18526NfkbTnfaIggrabUniPk'
p4802
(dp4803
g3
g4
(g8
S']\xe36\xdb\xf0\xf0\xeb?'
p4804
tp4805
Rp4806
sg14
g4
(g8
S'\x8a\xc0\xc3]\xad\x19\xec?'
p4807
tp4808
Rp4809
ssS'wgEncodeAwgTfbsSydhK562Stat1Ifna30UniPk'
p4810
(dp4811
g3
g4
(g8
S'\x00\xf9\xf4\x83a\x0c\xeb?'
p4812
tp4813
Rp4814
sg14
g4
(g8
S'\xe4\xbf\xc6\x90\x926\xeb?'
p4815
tp4816
Rp4817
ssS'wgEncodeAwgTfbsHaibHepg2Zbtb33Pcr1xUniPk'
p4818
(dp4819
g3
g4
(g8
S'\x06\xfb\xbd\xedd\xd1\xeb?'
p4820
tp4821
Rp4822
sg14
g4
(g8
S'\x03\x8c`T\xe0\x96\xeb?'
p4823
tp4824
Rp4825
ssS'wgEncodeAwgTfbsSydhImr90MafkIggrabUniPk'
p4826
(dp4827
g3
g4
(g8
S'\xdc\xf0\x8a0iM\xee?'
p4828
tp4829
Rp4830
sg14
g4
(g8
S'V\xd3\xdd\xe3\x00/\xef?'
p4831
tp4832
Rp4833
ssS'wgEncodeAwgTfbsUtaMcf7CtcfSerumstvdUniPk'
p4834
(dp4835
g3
g4
(g8
S'A \xb4\xfaG\xb7\xec?'
p4836
tp4837
Rp4838
sg14
g4
(g8
S']\xc9\xe9[\xe5W\xee?'
p4839
tp4840
Rp4841
ssS'wgEncodeAwgTfbsSydhGm12878TbpIggmusUniPk'
p4842
(dp4843
g3
g4
(g8
S'S@\xe3\x95I\xe9\xe9?'
p4844
tp4845
Rp4846
sg14
g4
(g8
S"\xb6'#\xb5]\x9e\xe9?"
p4847
tp4848
Rp4849
ssS'wgEncodeAwgTfbsHaibSknshNrsfV0416101UniPk'
p4850
(dp4851
g3
g4
(g8
S'\x16\xa5\xedi\x97B\xec?'
p4852
tp4853
Rp4854
sg14
g4
(g8
S'o\xbd\xd6C\xb2F\xec?'
p4855
tp4856
Rp4857
ssS'wgEncodeAwgTfbsSydhHepg2Arid3anb100279IggrabUniPk'
p4858
(dp4859
g3
g4
(g8
S'\xb6\xedJ\xa9j"\xeb?'
p4860
tp4861
Rp4862
sg14
g4
(g8
S'\x1a\x93G\x98\xc2\xf4\xeb?'
p4863
tp4864
Rp4865
ssS'wgEncodeAwgTfbsSydhA549Bhlhe40IggrabUniPk'
p4866
(dp4867
g3
g4
(g8
S'\xfa\x03\xa1\r\xd8\xba\xed?'
p4868
tp4869
Rp4870
sg14
g4
(g8
S'A\xbe\xd5\xdf\xc1\xba\xed?'
p4871
tp4872
Rp4873
ssS'wgEncodeAwgTfbsSydhMcf7Gata3sc269UcdUniPk'
p4874
(dp4875
g3
g4
(g8
S'i(\x8d>c\x0e\xeb?'
p4876
tp4877
Rp4878
sg14
g4
(g8
S'()x@i2\xeb?'
p4879
tp4880
Rp4881
ssS'wgEncodeAwgTfbsHaibH1hescAtf2sc81188V0422111UniPk'
p4882
(dp4883
g3
g4
(g8
S"\xf4\xe3'\xd9B\x88\xe9?"
p4884
tp4885
Rp4886
sg14
g4
(g8
S'[\xb5hE\xea\xed\xe9?'
p4887
tp4888
Rp4889
ssS'wgEncodeAwgTfbsSydhNt2d1Znf274UcdUniPk'
p4890
(dp4891
g3
g4
(g8
S'xj\xc31|\xe7\xed?'
p4892
tp4893
Rp4894
sg14
g4
(g8
S'\xea\xd6\xbfd\xe0E\xee?'
p4895
tp4896
Rp4897
ssS'wgEncodeAwgTfbsBroadHuvecEzh239875UniPk'
p4898
(dp4899
g3
g4
(g8
S'\xfc\x1b\xe2\x87\x10"\xe9?'
p4900
tp4901
Rp4902
sg14
g4
(g8
S'\x98]!\x9b\xde\xb2\xe9?'
p4903
tp4904
Rp4905
ssS'wgEncodeAwgTfbsHaibT47dFoxa1sc6553V0416102Dm002p1hUniPk'
p4906
(dp4907
g3
g4
(g8
S'4\xd0\xa6\xa3a\xbd\xed?'
p4908
tp4909
Rp4910
sg14
g4
(g8
S't\xc1\xf5\xf1\x88\xf7\xed?'
p4911
tp4912
Rp4913
ssS'wgEncodeAwgTfbsHaibA549Ctcfsc5916Pcr1xDex100nmUniPk'
p4914
(dp4915
g3
g4
(g8
S'\xc7Rb\xe7\n\xa7\xee?'
p4916
tp4917
Rp4918
sg14
g4
(g8
S'4O\xd4\xfd#\x9c\xef?'
p4919
tp4920
Rp4921
ssS'wgEncodeAwgTfbsSydhHepg2Pol2s2IggrabUniPk'
p4922
(dp4923
g3
g4
(g8
S'\xf9\xb9L\xf4\x8a\xdb\xe6?'
p4924
tp4925
Rp4926
sg14
g4
(g8
S'\xfcdFO\xe3\xa6\xe6?'
p4927
tp4928
Rp4929
ssS'wgEncodeAwgTfbsHaibHepg2SrfV0416101UniPk'
p4930
(dp4931
g3
g4
(g8
S'\xfc\xe4\x032\xa6c\xec?'
p4932
tp4933
Rp4934
sg14
g4
(g8
S'\tDKJ\x06C\xed?'
p4935
tp4936
Rp4937
ssS'wgEncodeAwgTfbsSydhA549Pol2s2IggrabUniPk'
p4938
(dp4939
g3
g4
(g8
S'\xce\xe4\xa7\x9a\xe5\x93\xe6?'
p4940
tp4941
Rp4942
sg14
g4
(g8
S'z\xf6\xb1b \x9a\xe6?'
p4943
tp4944
Rp4945
ssS'wgEncodeAwgTfbsSydhGm19099NfkbTnfaIggrabUniPk'
p4946
(dp4947
g3
g4
(g8
S'P[x\x9dZ\xf9\xec?'
p4948
tp4949
Rp4950
sg14
g4
(g8
S'\x03\xcb\x1c\xd9gQ\xed?'
p4951
tp4952
Rp4953
ssS'wgEncodeAwgTfbsSydhH1hescRfx5200401194IggrabUniPk'
p4954
(dp4955
g3
g4
(g8
S'\xa8?<\x10\x16\xc2\xeb?'
p4956
tp4957
Rp4958
sg14
g4
(g8
S'J\xa7\xcf\xf2\xe0\x10\xec?'
p4959
tp4960
Rp4961
ssS'wgEncodeAwgTfbsUwSknshraCtcfUniPk'
p4962
(dp4963
g3
g4
(g8
S'\x15\x18\xe5\xc1{\x15\xee?'
p4964
tp4965
Rp4966
sg14
g4
(g8
S'\xf0\x99\xd8k=B\xef?'
p4967
tp4968
Rp4969
ssS'wgEncodeAwgTfbsHaibK562Yy1V0416101UniPk'
p4970
(dp4971
g3
g4
(g8
S'\xc3$O5j_\xec?'
p4972
tp4973
Rp4974
sg14
g4
(g8
S'\xc0\xe6\xd6\x91\x88\xb1\xec?'
p4975
tp4976
Rp4977
ssS'wgEncodeAwgTfbsSydhMcf10aesCfosTamHvdUniPk'
p4978
(dp4979
g3
g4
(g8
S'*\xb2\x00\x99\xb0\x10\xef?'
p4980
tp4981
Rp4982
sg14
g4
(g8
S'4\x1f\xc6y\xf4\x04\xef?'
p4983
tp4984
Rp4985
ssS'wgEncodeAwgTfbsUchicagoK562EjundUniPk'
p4986
(dp4987
g3
g4
(g8
S'\x83\xe6\xe1\xbc\xab\xfa\xec?'
p4988
tp4989
Rp4990
sg14
g4
(g8
S'.\xb6 \xbd \xcc\xec?'
p4991
tp4992
Rp4993
ssS'wgEncodeAwgTfbsSydhK562Irf1Ifna30UniPk'
p4994
(dp4995
g3
g4
(g8
S'\xf0CE\xf7\xc6\x8e\xeb?'
p4996
tp4997
Rp4998
sg14
g4
(g8
S'%\xcf\xadQ\x02\xb2\xea?'
p4999
tp5000
Rp5001
ssS'wgEncodeAwgTfbsHaibHepg2Mbd4sc271530V0422111UniPk'
p5002
(dp5003
g3
g4
(g8
S'\xeaH\n\xb7\xb5\x1a\xe9?'
p5004
tp5005
Rp5006
sg14
g4
(g8
S'\x10\xd9\xdd\xa73R\xe9?'
p5007
tp5008
Rp5009
ssS'wgEncodeAwgTfbsUtaA549CtcfUniPk'
p5010
(dp5011
g3
g4
(g8
S'\xdfBPV\xc6~\xed?'
p5012
tp5013
Rp5014
sg14
g4
(g8
S'b\xc6-\xcc\xe9\xd1\xee?'
p5015
tp5016
Rp5017
ssS'wgEncodeAwgTfbsBroadGm12878CtcfUniPk'
p5018
(dp5019
g3
g4
(g8
S'.Y~\x82\x00\xcc\xed?'
p5020
tp5021
Rp5022
sg14
g4
(g8
S'\xb8\x8bW*\x9e\xd7\xee?'
p5023
tp5024
Rp5025
ssS'wgEncodeAwgTfbsHaibK562Egr1V0416101UniPk'
p5026
(dp5027
g3
g4
(g8
S'\x03x\xf1\\\xd0\xed\xed?'
p5028
tp5029
Rp5030
sg14
g4
(g8
S'\x16\xd1*\xcd\xb4\x00\xee?'
p5031
tp5032
Rp5033
ssS'wgEncodeAwgTfbsSydhHelas3Baf170IggmusUniPk'
p5034
(dp5035
g3
g4
(g8
S'pk\xe3y\x9a>\xe8?'
p5036
tp5037
Rp5038
sg14
g4
(g8
S'\x9a\xf6\x18\x94Q\xdb\xe8?'
p5039
tp5040
Rp5041
ssS'wgEncodeAwgTfbsSydhH1hescCjunIggrabUniPk'
p5042
(dp5043
g3
g4
(g8
S'\x1b~\xd5\xb91\xfa\xec?'
p5044
tp5045
Rp5046
sg14
g4
(g8
S'\xb6LI3\x03\xfa\xec?'
p5047
tp5048
Rp5049
ssS'wgEncodeAwgTfbsSydhK562MaffIggrabUniPk'
p5050
(dp5051
g3
g4
(g8
S'\xd5a_\xd5\x11D\xee?'
p5052
tp5053
Rp5054
sg14
g4
(g8
S';2\x97}n\xd2\xee?'
p5055
tp5056
Rp5057
ssS'wgEncodeAwgTfbsSydhHelas3TbpIggrabUniPk'
p5058
(dp5059
g3
g4
(g8
S'\x8e\xd7\xaf `3\xea?'
p5060
tp5061
Rp5062
sg14
g4
(g8
S'^\x16\xbdNz:\xea?'
p5063
tp5064
Rp5065
ssS'wgEncodeAwgTfbsSydhHepg2Rad21IggrabUniPk'
p5066
(dp5067
g3
g4
(g8
S'\xac\xf6\x8f\xd1\xea\xfa\xed?'
p5068
tp5069
Rp5070
sg14
g4
(g8
S'\x05\xfaT\x17=\x00\xef?'
p5071
tp5072
Rp5073
ssS'wgEncodeAwgTfbsHaibGm12878Mta3sc81325V0422111UniPk'
p5074
(dp5075
g3
g4
(g8
S'\xfa\n\xb69\xb8\x1c\xea?'
p5076
tp5077
Rp5078
sg14
g4
(g8
S'\xebi\x16.\x93\x8d\xea?'
p5079
tp5080
Rp5081
ssS'wgEncodeAwgTfbsHaibK562Pol24h8V0416101UniPk'
p5082
(dp5083
g3
g4
(g8
S'\x0e\xd0l\xcfcR\xea?'
p5084
tp5085
Rp5086
sg14
g4
(g8
S'\xba\x97\xb1\xf3\xc6c\xea?'
p5087
tp5088
Rp5089
ssS'wgEncodeAwgTfbsSydhHelas3Tf3c110UniPk'
p5090
(dp5091
g3
g4
(g8
S'\x94\xbc\xb8\x02f(\xed?'
p5092
tp5093
Rp5094
sg14
g4
(g8
S'\x0c\x19\xa1\xb2V#\xed?'
p5095
tp5096
Rp5097
ssS'wgEncodeAwgTfbsUwHpfCtcfUniPk'
p5098
(dp5099
g3
g4
(g8
S'j\\\xcb[B\x0f\xee?'
p5100
tp5101
Rp5102
sg14
g4
(g8
S'8\x04\xd0\x15\x1d2\xef?'
p5103
tp5104
Rp5105
ssS'wgEncodeAwgTfbsUwHffCtcfUniPk'
p5106
(dp5107
g3
g4
(g8
S'X2?\xc8\xd0m\xee?'
p5108
tp5109
Rp5110
sg14
g4
(g8
S'\xdc\x8e\xb1\xb2 q\xef?'
p5111
tp5112
Rp5113
ssS'wgEncodeAwgTfbsHaibGm12878Foxm1sc502V0422111UniPk'
p5114
(dp5115
g3
g4
(g8
S'\xba\x99\\Vz\x08\xeb?'
p5116
tp5117
Rp5118
sg14
g4
(g8
S'\xfaB\x12\x8f>\x93\xeb?'
p5119
tp5120
Rp5121
ssS'wgEncodeAwgTfbsHaibT47dCtcfsc5916V0416102Dm002p1hUniPk'
p5122
(dp5123
g3
g4
(g8
S'y9\x00\xa5\xdd5\xee?'
p5124
tp5125
Rp5126
sg14
g4
(g8
S'\xc2\xb6*Yv7\xef?'
p5127
tp5128
Rp5129
ssS'wgEncodeAwgTfbsSydhMcf10aesPol2TamUniPk'
p5130
(dp5131
g3
g4
(g8
S'\xe4\x8c\xc8\xce\x7f\xf5\xe9?'
p5132
tp5133
Rp5134
sg14
g4
(g8
S'+\x9d\xf3\xad2\x12\xea?'
p5135
tp5136
Rp5137
ssS'wgEncodeAwgTfbsSydhPbdePol2UcdUniPk'
p5138
(dp5139
g3
g4
(g8
S' \xbe\xc4\xec\xc9;\xe9?'
p5140
tp5141
Rp5142
sg14
g4
(g8
S'\xd2\x8f\x15\xb1\xd4t\xe9?'
p5143
tp5144
Rp5145
ssS'wgEncodeAwgTfbsSydhGm12878Rad21IggrabUniPk'
p5146
(dp5147
g3
g4
(g8
S'\xf7+>\xeb/\xf7\xed?'
p5148
tp5149
Rp5150
sg14
g4
(g8
S'\xe5\xf9+b\xd9\x0b\xef?'
p5151
tp5152
Rp5153
ssS'wgEncodeAwgTfbsSydhH1hescChd1a301218aIggrabUniPk'
p5154
(dp5155
g3
g4
(g8
S'\xfegHk.\x0f\xe7?'
p5156
tp5157
Rp5158
sg14
g4
(g8
S'>n\xfb\\\x1c\xbb\xe5?'
p5159
tp5160
Rp5161
ssS'wgEncodeAwgTfbsSydhHelas3Rpc155UniPk'
p5162
(dp5163
g3
g4
(g8
S':{\xd7\x8c\tQ\xee?'
p5164
tp5165
Rp5166
sg14
g4
(g8
S'\xc6\x84(s\xf6\xae\xee?'
p5167
tp5168
Rp5169
ssS'wgEncodeAwgTfbsSydhHepg2Tcf7l2UcdUniPk'
p5170
(dp5171
g3
g4
(g8
S'\xe0\xfc\x93\x12\x9cO\xea?'
p5172
tp5173
Rp5174
sg14
g4
(g8
S'\xd0\xe1Z\xc7+\x17\xea?'
p5175
tp5176
Rp5177
ssS'wgEncodeAwgTfbsSydhNt2d1Suz12UcdUniPk'
p5178
(dp5179
g3
g4
(g8
S'L\x08\\3\xa6\xb6\xe8?'
p5180
tp5181
Rp5182
sg14
g4
(g8
S"'\x9c\xc9\xd0\x07#\xe9?"
p5183
tp5184
Rp5185
ssS'wgEncodeAwgTfbsHaibGm12878Six5Pcr1xUniPk'
p5186
(dp5187
g3
g4
(g8
S'\xf8\x7f\xca\xb7\xd04\xeb?'
p5188
tp5189
Rp5190
sg14
g4
(g8
S'h\xe1X\xca\xa9=\xec?'
p5191
tp5192
Rp5193
ssS'wgEncodeAwgTfbsUtaGm12892CtcfUniPk'
p5194
(dp5195
g3
g4
(g8
S'\xf1\xc2~\x84\xe6\xd6\xec?'
p5196
tp5197
Rp5198
sg14
g4
(g8
S'0C:\x93l\x1d\xee?'
p5199
tp5200
Rp5201
ssS'wgEncodeAwgTfbsUwAoafCtcfUniPk'
p5202
(dp5203
g3
g4
(g8
S'\xe3\xbec\xb8\xc0\xd7\xed?'
p5204
tp5205
Rp5206
sg14
g4
(g8
S'\x8f\x84v\xae\x08>\xef?'
p5207
tp5208
Rp5209
ssS'wgEncodeAwgTfbsUwHct116CtcfUniPk'
p5210
(dp5211
g3
g4
(g8
S'\xdd\x06i\xfc\x08,\xee?'
p5212
tp5213
Rp5214
sg14
g4
(g8
S'\xc7\x13\xca\x12w8\xef?'
p5215
tp5216
Rp5217
ssS'wgEncodeAwgTfbsSydhK562Setdb1UcdUniPk'
p5218
(dp5219
g3
g4
(g8
S'}9\xc0\xb2\xcd\xa3\xe9?'
p5220
tp5221
Rp5222
sg14
g4
(g8
S'\xf2\x1a\xcak([\xe9?'
p5223
tp5224
Rp5225
ssS'wgEncodeAwgTfbsHaibHuvecPol24h8V0416101UniPk'
p5226
(dp5227
g3
g4
(g8
S'\xc3\x12\x92\x96\x15\x9f\xeb?'
p5228
tp5229
Rp5230
sg14
g4
(g8
S'\xd8\xf3\x85?&d\xeb?'
p5231
tp5232
Rp5233
ssS'wgEncodeAwgTfbsHaibA549Bcl3V0422111Etoh02UniPk'
p5234
(dp5235
g3
g4
(g8
S'\x0f\xf2\xdb\x12\xd1\xf9\xe9?'
p5236
tp5237
Rp5238
sg14
g4
(g8
S'i\xfd\xc4\xfa\x0c5\xea?'
p5239
tp5240
Rp5241
ssS'wgEncodeAwgTfbsHaibT47dGata3sc268V0416102Dm002p1hUniPk'
p5242
(dp5243
g3
g4
(g8
S'\x80\xca\xbf\xfd\xc4\x83\xeb?'
p5244
tp5245
Rp5246
sg14
g4
(g8
S'\xb4\xbdZ\xce\x8a\xfc\xeb?'
p5247
tp5248
Rp5249
ssS'wgEncodeAwgTfbsHaibGm12878SrfPcr2xUniPk'
p5250
(dp5251
g3
g4
(g8
S'yY\x1a>>\x85\xeb?'
p5252
tp5253
Rp5254
sg14
g4
(g8
S'\x11\xb2}\x1c\x14\x08\xec?'
p5255
tp5256
Rp5257
ssS'wgEncodeAwgTfbsSydhGm12878Znf274UniPk'
p5258
(dp5259
g3
g4
(g8
S'\xe0\x83\x0f>\xf8\xe0\xef?'
p5260
tp5261
Rp5262
sg14
g4
(g8
S'|\xf0\xc1\x07\x1f\xfc\xef?'
p5263
tp5264
Rp5265
ssS'wgEncodeAwgTfbsSydhH1hescTbpIggrabUniPk'
p5266
(dp5267
g3
g4
(g8
S'\x0f\xc4\xf4H\xdcV\xea?'
p5268
tp5269
Rp5270
sg14
g4
(g8
S'&/\xcf\xe4+k\xea?'
p5271
tp5272
Rp5273
ssS'wgEncodeAwgTfbsSydhK562CmycIggrabUniPk'
p5274
(dp5275
g3
g4
(g8
S'\x16(\xe6\x9bW\x9b\xeb?'
p5276
tp5277
Rp5278
sg14
g4
(g8
S'\xb6v\x94L\xa5\x9d\xeb?'
p5279
tp5280
Rp5281
ssS'wgEncodeAwgTfbsSydhK562Pol3UniPk'
p5282
(dp5283
g3
g4
(g8
S'\xa6\\\xca\xa5\\\xca\xeb?'
p5284
tp5285
Rp5286
sg14
g4
(g8
S'1\x0c\xc30\x0c\xc3\xea?'
p5287
tp5288
Rp5289
ssS'wgEncodeAwgTfbsSydhK562Stat1Ifng30UniPk'
p5290
(dp5291
g3
g4
(g8
S'\xee\xd5@V\x15q\xed?'
p5292
tp5293
Rp5294
sg14
g4
(g8
S'7\xc3\xc9"#\xb1\xed?'
p5295
tp5296
Rp5297
ssS'wgEncodeAwgTfbsBroadK562P300UniPk'
p5298
(dp5299
g3
g4
(g8
S'\x8eW\xec\xa6c}\xe8?'
p5300
tp5301
Rp5302
sg14
g4
(g8
S'\x13`\xb8\xac\x08\x93\xe8?'
p5303
tp5304
Rp5305
ssS'wgEncodeAwgTfbsBroadNhlfCtcfUniPk'
p5306
(dp5307
g3
g4
(g8
S'\xa9\x99\x98\x1a\x1e\x18\xee?'
p5308
tp5309
Rp5310
sg14
g4
(g8
S'\x18`$\xa1\xbc\x10\xef?'
p5311
tp5312
Rp5313
ssS'wgEncodeAwgTfbsSydhHelas3Brg1IggmusUniPk'
p5314
(dp5315
g3
g4
(g8
S'N\xfd\xf0\x7f\x9b\x1e\xe6?'
p5316
tp5317
Rp5318
sg14
g4
(g8
S'e\xbb\xae\xe2\xb5\xc7\xe6?'
p5319
tp5320
Rp5321
ssS'wgEncodeAwgTfbsSydhHelas3Brca1a300IggrabUniPk'
p5322
(dp5323
g3
g4
(g8
S'$i\xe4\x81\x03\x14\xeb?'
p5324
tp5325
Rp5326
sg14
g4
(g8
S'B)\xc8u\x8f\x8c\xeb?'
p5327
tp5328
Rp5329
ssS'wgEncodeAwgTfbsSydhK562Pol2IggmusUniPk'
p5330
(dp5331
g3
g4
(g8
S'\xee\xb6\xc2\x81\x1d\x9c\xe8?'
p5332
tp5333
Rp5334
sg14
g4
(g8
S'\xf6,b\xdf\x1f\x01\xe9?'
p5335
tp5336
Rp5337
ssS'wgEncodeAwgTfbsHaibA549Six5V0422111Etoh02UniPk'
p5338
(dp5339
g3
g4
(g8
S'\xa6c\xf0\xe2\x19\xcd\xea?'
p5340
tp5341
Rp5342
sg14
g4
(g8
S'\xf2dht\x83\xdf\xea?'
p5343
tp5344
Rp5345
ssS'wgEncodeAwgTfbsHaibGm12891Pol24h8Pcr1xUniPk'
p5346
(dp5347
g3
g4
(g8
S'E\xf6\xd49\x13\xd1\xe8?'
p5348
tp5349
Rp5350
sg14
g4
(g8
S'\xc8r\xba\x1d+\xdd\xe8?'
p5351
tp5352
Rp5353
ssS'wgEncodeAwgTfbsSydhHepg2Usf2IggrabUniPk'
p5354
(dp5355
g3
g4
(g8
S'*\x8aj\xf5\x98\x1c\xef?'
p5356
tp5357
Rp5358
sg14
g4
(g8
S'wD\xd8\xaf\xfd\x1d\xef?'
p5359
tp5360
Rp5361
ssS'wgEncodeAwgTfbsSydhHelas3Pol2s2IggrabUniPk'
p5362
(dp5363
g3
g4
(g8
S'=\x83\x9b\x7f\x15k\xe9?'
p5364
tp5365
Rp5366
sg14
g4
(g8
S'^.I8\xc7\xb7\xe9?'
p5367
tp5368
Rp5369
ssS'wgEncodeAwgTfbsHaibH1hescSp4v20V0422111UniPk'
p5370
(dp5371
g3
g4
(g8
S'u\xf8(\xb6\x8f]\xe9?'
p5372
tp5373
Rp5374
sg14
g4
(g8
S'n\x8d\xee\xfd\x11z\xe9?'
p5375
tp5376
Rp5377
ssS'wgEncodeAwgTfbsUtaFibroblCtcfUniPk'
p5378
(dp5379
g3
g4
(g8
S'\x84u\x9c\xdc\xb0y\xed?'
p5380
tp5381
Rp5382
sg14
g4
(g8
S'\n\xb9\xd5\xe7\x15\xb5\xee?'
p5383
tp5384
Rp5385
ssS'wgEncodeAwgTfbsUtaGm12878CtcfUniPk'
p5386
(dp5387
g3
g4
(g8
S'\xfd\x92\x0b"\xbd;\xee?'
p5388
tp5389
Rp5390
sg14
g4
(g8
S'\x0b\x16,\x852q\xef?'
p5391
tp5392
Rp5393
ssS'wgEncodeAwgTfbsHaibK562Elf1sc631V0416102UniPk'
p5394
(dp5395
g3
g4
(g8
S'nr\xe02}\xf9\xed?'
p5396
tp5397
Rp5398
sg14
g4
(g8
S'D\xd9\x1e\xdf\x1b\x17\xee?'
p5399
tp5400
Rp5401
ssS'wgEncodeAwgTfbsHaibGm12878Ets1Pcr1xUniPk'
p5402
(dp5403
g3
g4
(g8
S'\xba\xe3\xa2\x06\xd1\xdb\xea?'
p5404
tp5405
Rp5406
sg14
g4
(g8
S'4\xb0\xf7\x90}K\xeb?'
p5407
tp5408
Rp5409
ssS'wgEncodeAwgTfbsHaibK562Zbtb7asc34508V0416101UniPk'
p5410
(dp5411
g3
g4
(g8
S'n\xcbK#y"\xeb?'
p5412
tp5413
Rp5414
sg14
g4
(g8
S'\x83%\xc4\x94h\xef\xea?'
p5415
tp5416
Rp5417
ssS'wgEncodeAwgTfbsSydhHelas3Tr4UniPk'
p5418
(dp5419
g3
g4
(g8
S'\xb7\x9c\xdf\x1f\xf3g\xeb?'
p5420
tp5421
Rp5422
sg14
g4
(g8
S'\xc2\x0e?%\rs\xeb?'
p5423
tp5424
Rp5425
ssS'wgEncodeAwgTfbsUwWi38CtcfUniPk'
p5426
(dp5427
g3
g4
(g8
S'\xa0\xff\xc9y\xf2\xfb\xed?'
p5428
tp5429
Rp5430
sg14
g4
(g8
S'B3\x8d6\xfe\x07\xef?'
p5431
tp5432
Rp5433
ssS'wgEncodeAwgTfbsSydhA549MaxIggrabUniPk'
p5434
(dp5435
g3
g4
(g8
S'\xd2E\x89\x86C\xa6\xeb?'
p5436
tp5437
Rp5438
sg14
g4
(g8
S'\xd5`Y\x8d\xb2\x89\xeb?'
p5439
tp5440
Rp5441
ssS'wgEncodeAwgTfbsHaibHepg2Hdac2sc6296V0416101UniPk'
p5442
(dp5443
g3
g4
(g8
S'1\x85\xdc\x0f\xca\xab\xeb?'
p5444
tp5445
Rp5446
sg14
g4
(g8
S"\x1a'i\xff\xac\xa2\xeb?"
p5447
tp5448
Rp5449
ssS'wgEncodeAwgTfbsSydhGm12878Zzz3UniPk'
p5450
(dp5451
g3
g4
(g8
S'\xb1\x95\xce\\@y\xeb?'
p5452
tp5453
Rp5454
sg14
g4
(g8
S'\xc8\xc7\xc7\xc7\xc7\xc7\xeb?'
p5455
tp5456
Rp5457
ssS'wgEncodeAwgTfbsSydhGm12878NfybIggmusUniPk'
p5458
(dp5459
g3
g4
(g8
S'\x90\x18u4\xd3\x83\xed?'
p5460
tp5461
Rp5462
sg14
g4
(g8
S'pYt\x15*\xb3\xed?'
p5463
tp5464
Rp5465
ssS'wgEncodeAwgTfbsHaibA549Usf1Pcr1xEtoh02UniPk'
p5466
(dp5467
g3
g4
(g8
S'\x8e\xf2\xeb\x9a\x13\x04\xee?'
p5468
tp5469
Rp5470
sg14
g4
(g8
S'\x8e\x16p\xfe\xa0\xfd\xed?'
p5471
tp5472
Rp5473
ssS'wgEncodeAwgTfbsHaibK562Rad21V0416102UniPk'
p5474
(dp5475
g3
g4
(g8
S'P\xda.\x90d\xff\xed?'
p5476
tp5477
Rp5478
sg14
g4
(g8
S'\x13\x8d\xa5\x93\x18H\xef?'
p5479
tp5480
Rp5481
ssS'wgEncodeAwgTfbsSydhHelas3Baf155IggmusUniPk'
p5482
(dp5483
g3
g4
(g8
S'\x06\x16\x02\t*\xad\xe8?'
p5484
tp5485
Rp5486
sg14
g4
(g8
S'\xf4\x18\xffm\x13\x12\xe9?'
p5487
tp5488
Rp5489
ssS'wgEncodeAwgTfbsBroadDnd41CtcfUniPk'
p5490
(dp5491
g3
g4
(g8
S'\x94\x99\xabB\xbb\x13\xee?'
p5492
tp5493
Rp5494
sg14
g4
(g8
S'7\x0f\xfb]b \xef?'
p5495
tp5496
Rp5497
ssS'wgEncodeAwgTfbsHaibGm12891Pax5c20V0416101UniPk'
p5498
(dp5499
g3
g4
(g8
S'Kq\xb7\x96\x97s\xeb?'
p5500
tp5501
Rp5502
sg14
g4
(g8
S'\x89n\x16\x05.\xc3\xec?'
p5503
tp5504
Rp5505
ssS'wgEncodeAwgTfbsSydhHepg2Rfx5200401194IggrabUniPk'
p5506
(dp5507
g3
g4
(g8
S'4\xd2\x7f\xccm\xdf\xeb?'
p5508
tp5509
Rp5510
sg14
g4
(g8
S'ek\x7f\xf9]Z\xec?'
p5511
tp5512
Rp5513
ssS'wgEncodeAwgTfbsSydhU2osSetdb1UcdUniPk'
p5514
(dp5515
g3
g4
(g8
S'\\\xb2\xd5\xfa\x9c\xd1\xe9?'
p5516
tp5517
Rp5518
sg14
g4
(g8
S'\x11n\x1f\x07\x80\x1b\xeb?'
p5519
tp5520
Rp5521
ssS'wgEncodeAwgTfbsHaibK562Ets1V0416101UniPk'
p5522
(dp5523
g3
g4
(g8
S'%\x7f{\x90!\xae\xea?'
p5524
tp5525
Rp5526
sg14
g4
(g8
S'w+\x99\xff\x9a\xb6\xea?'
p5527
tp5528
Rp5529
ss.