(dp0
S'wgEncodeAwgTfbsHaibHepg2Hnf4gsc6558V0416101UniPk'
p1
F0.941031
sS'wgEncodeAwgTfbsBroadHelas3Ezh239875UniPk'
p2
F0.664941
sS'wgEncodeAwgTfbsHaibPanc1NrsfPcr2xUniPk'
p3
F0.912729
sS'wgEncodeAwgTfbsHaibGm12878P300Pcr1xUniPk'
p4
F0.851725
sS'wgEncodeAwgTfbsSydhNb4CmycUniPk'
p5
F0.879238
sS'wgEncodeAwgTfbsUtaHelas3Pol2UniPk'
p6
F0.797333
sS'wgEncodeAwgTfbsSydhHelas3Elk112771IggrabUniPk'
p7
F0.896834
sS'wgEncodeAwgTfbsHaibA549Elf1V0422111Etoh02UniPk'
p8
F0.878011
sS'wgEncodeAwgTfbsSydhGm12878Pol2UniPk'
p9
F0.775765
sS'wgEncodeAwgTfbsSydhK562CjunUniPk'
p10
F0.960913
sS'wgEncodeAwgTfbsUwHaspCtcfUniPk'
p11
F0.50426
sS'wgEncodeAwgTfbsSydhK562Irf1Ifng30UniPk'
p12
F0.807476
sS'wgEncodeAwgTfbsSydhK562Stat1Ifna6hUniPk'
p13
F0.893972
sS'wgEncodeAwgTfbsHaibHepg2Sp2V0422111UniPk'
p14
F0.935245
sS'wgEncodeAwgTfbsHaibH1hescEgr1V0416102UniPk'
p15
F0.880407
sS'wgEncodeAwgTfbsHaibEcc1CtcfcV0416102Dm002p1hUniPk'
p16
F0.988647
sS'wgEncodeAwgTfbsSydhMcf10aesCmycEtoh01HvdUniPk'
p17
F0.904262
sS'wgEncodeAwgTfbsHaibGm12878NrsfPcr1xUniPk'
p18
F0.912279
sS'wgEncodeAwgTfbsSydhK562Corestsc30189IggrabUniPk'
p19
F0.891361
sS'wgEncodeAwgTfbsSydhGm12878MaxIggmusUniPk'
p20
F0.496989
sS'wgEncodeAwgTfbsUtaGm12891CtcfUniPk'
p21
F0.947262
sS'wgEncodeAwgTfbsSydhGm12878Ctcfsc15914c20UniPk'
p22
F0.498847
sS'wgEncodeAwgTfbsSydhGm18505NfkbTnfaIggrabUniPk'
p23
F0.887183
sS'wgEncodeAwgTfbsHaibHepg2Atf3V0416101UniPk'
p24
F0.494237
sS'wgEncodeAwgTfbsSydhPbdeGata1UcdUniPk'
p25
F0.858548
sS'wgEncodeAwgTfbsHaibH1hescSin3ak20Pcr1xUniPk'
p26
F0.827288
sS'wgEncodeAwgTfbsUwGm12865CtcfUniPk'
p27
F0.979353
sS'wgEncodeAwgTfbsSydhHelas3E2f1UniPk'
p28
F0.501213
sS'wgEncodeAwgTfbsHaibH1hescBcl11aPcr1xUniPk'
p29
F0.899921
sS'wgEncodeAwgTfbsSydhHelas3Rad21IggrabUniPk'
p30
F0.96218
sS'wgEncodeAwgTfbsHaibA549Usf1V0422111Etoh02UniPk'
p31
F0.905782
sS'wgEncodeAwgTfbsUwHelas3CtcfUniPk'
p32
F0.988592
sS'wgEncodeAwgTfbsSydhGm08714Znf274UcdUniPk'
p33
F0.930926
sS'wgEncodeAwgTfbsSydhGm12878Tblr1ab24550IggmusUniPk'
p34
F0.811461
sS'wgEncodeAwgTfbsBroadK562Sap3039731UniPk'
p35
F0.759306
sS'wgEncodeAwgTfbsHaibSknshPol24h8V0416101UniPk'
p36
F0.828083
sS'wgEncodeAwgTfbsSydhGm12878Pol2IggmusUniPk'
p37
F0.763285
sS'wgEncodeAwgTfbsSydhK562Bdp1UniPk'
p38
F0.754386
sS'wgEncodeAwgTfbsHaibGm12878Zbtb33Pcr1xUniPk'
p39
F0.845699
sS'wgEncodeAwgTfbsHaibHepg2P300V0416101UniPk'
p40
F0.902324
sS'wgEncodeAwgTfbsUwAg04450CtcfUniPk'
p41
F0.976656
sS'wgEncodeAwgTfbsHaibT47dEralphaaPcr2xGen1hUniPk'
p42
F0.905948
sS'wgEncodeAwgTfbsSydhMcf10aesStat3Etoh01bUniPk'
p43
F0.952112
sS'wgEncodeAwgTfbsUwHbmecCtcfUniPk'
p44
F0.973467
sS'wgEncodeAwgTfbsHaibK562MaxV0416102UniPk'
p45
F0.876962
sS'wgEncodeAwgTfbsHaibH1hescHdac2sc6296V0416102UniPk'
p46
F0.502131
sS'wgEncodeAwgTfbsSydhK562Bhlhe40nb100IggrabUniPk'
p47
F0.502386
sS'wgEncodeAwgTfbsHaibHepg2Elf1sc631V0416101UniPk'
p48
F0.931924
sS'wgEncodeAwgTfbsSydhK562Znf274UcdUniPk'
p49
F0.917847
sS'wgEncodeAwgTfbsSydhA549CebpbIggrabUniPk'
p50
F0.97648
sS'wgEncodeAwgTfbsBroadK562Hdac1sc6298UniPk'
p51
F0.501937
sS'wgEncodeAwgTfbsSydhHepg2Irf3IggrabUniPk'
p52
F0.883642
sS'wgEncodeAwgTfbsSydhH1hescUsf2IggrabUniPk'
p53
F0.956655
sS'wgEncodeAwgTfbsBroadNhekEzh239875UniPk'
p54
F0.764803
sS'wgEncodeAwgTfbsUwNhekCtcfUniPk'
p55
F0.978318
sS'wgEncodeAwgTfbsSydhHuvecGata2UcdUniPk'
p56
F0.502117
sS'wgEncodeAwgTfbsHaibPfsk1Taf1V0416101UniPk'
p57
F0.815923
sS'wgEncodeAwgTfbsSydhHepg2CebpbIggrabUniPk'
p58
F0.980648
sS'wgEncodeAwgTfbsHaibSknmcFoxp2Pcr2xUniPk'
p59
F0.861104
sS'wgEncodeAwgTfbsSydhMcf7Tcf7l2UcdUniPk'
p60
F0.845797
sS'wgEncodeAwgTfbsHaibHct116Zbtb33V0416101UniPk'
p61
F0.815067
sS'wgEncodeAwgTfbsUwGm12864CtcfUniPk'
p62
F0.977201
sS'wgEncodeAwgTfbsUwHvmfCtcfUniPk'
p63
F0.976851
sS'wgEncodeAwgTfbsSydhHek293Pol2UniPk'
p64
F0.808674
sS'wgEncodeAwgTfbsSydhK562TbpIggmusUniPk'
p65
F0.820914
sS'wgEncodeAwgTfbsHaibHepg2Pol2Pcr2xUniPk'
p66
F0.786874
sS'wgEncodeAwgTfbsBroadHepg2CtcfUniPk'
p67
F0.978966
sS'wgEncodeAwgTfbsHaibH1hescRxraV0416102UniPk'
p68
F0.842511
sS'wgEncodeAwgTfbsSydhGm18505Pol2IggmusUniPk'
p69
F0.786653
sS'wgEncodeAwgTfbsSydhH1hescSin3anb6001263IggrabUniPk'
p70
F0.493465
sS'wgEncodeAwgTfbsUwBjCtcfUniPk'
p71
F0.975956
sS'wgEncodeAwgTfbsHaibHelas3Pol2Pcr1xUniPk'
p72
F0.791583
sS'wgEncodeAwgTfbsHaibHepg2Zbtb7aV0416101UniPk'
p73
F0.868833
sS'wgEncodeAwgTfbsUtaMcf7Pol2SerumstimUniPk'
p74
F0.815631
sS'wgEncodeAwgTfbsHaibGm12892Yy1V0416101UniPk'
p75
F0.917105
sS'wgEncodeAwgTfbsHaibHepg2Hnf4asc8987V0416101UniPk'
p76
F0.948945
sS'wgEncodeAwgTfbsHaibHepg2Nficsc81335V0422111UniPk'
p77
F0.850605
sS'wgEncodeAwgTfbsUtaHelas3CtcfUniPk'
p78
F0.984399
sS'wgEncodeAwgTfbsHaibH1hescNanogsc33759V0416102UniPk'
p79
F0.891879
sS'wgEncodeAwgTfbsSydhHepg2P300sc582IggrabUniPk'
p80
F0.851034
sS'wgEncodeAwgTfbsSydhK562MaxIggrabUniPk'
p81
F0.888015
sS'wgEncodeAwgTfbsSydhHelas3Ini1IggmusUniPk'
p82
F0.782213
sS'wgEncodeAwgTfbsHaibK562Thap1sc98174V0416101UniPk'
p83
F0.473564
sS'wgEncodeAwgTfbsHaibHepg2Cebpdsc636V0416101UniPk'
p84
F0.871765
sS'wgEncodeAwgTfbsHaibK562Pu1Pcr1xUniPk'
p85
F0.98481
sS'wgEncodeAwgTfbsSydhK562Stat1Ifng6hUniPk'
p86
F0.882934
sS'wgEncodeAwgTfbsUtaGlioblaPol2UniPk'
p87
F0.81271
sS'wgEncodeAwgTfbsBroadK562Ezh239875UniPk'
p88
F0.458921
sS'wgEncodeAwgTfbsSydhK562CmycIfng6hUniPk'
p89
F0.856116
sS'wgEncodeAwgTfbsBroadGm12878CtcfUniPk'
p90
F0.500492
sS'wgEncodeAwgTfbsSydhHelas3Brf2UniPk'
p91
F0.612357
sS'wgEncodeAwgTfbsHaibK562Gata2sc267Pcr1xUniPk'
p92
F0.939073
sS'wgEncodeAwgTfbsSydhHelas3CfosUniPk'
p93
F0.954749
sS'wgEncodeAwgTfbsHaibGm12878Pol24h8Pcr1xUniPk'
p94
F0.761721
sS'wgEncodeAwgTfbsSydhHelas3Brf1UniPk'
p95
F0.750676
sS'wgEncodeAwgTfbsHaibHepg2Rad21V0416101UniPk'
p96
F0.965484
sS'wgEncodeAwgTfbsBroadNhdfadCtcfUniPk'
p97
F0.976448
sS'wgEncodeAwgTfbsSydhHepg2Mazab85725IggrabUniPk'
p98
F0.842159
sS'wgEncodeAwgTfbsUtaHuvecCtcfUniPk'
p99
F0.49866
sS'wgEncodeAwgTfbsUtaMcf7CtcfSerumstimUniPk'
p100
F0.947986
sS'wgEncodeAwgTfbsSydhK562Ccnt2UniPk'
p101
F0.834141
sS'wgEncodeAwgTfbsUwSaecCtcfUniPk'
p102
F0.981533
sS'wgEncodeAwgTfbsSydhGm12878Chd1a301218aIggmusUniPk'
p103
F0.692394
sS'wgEncodeAwgTfbsSydhGm15510NfkbTnfaIggrabUniPk'
p104
F0.826776
sS'wgEncodeAwgTfbsSydhGm12878JundUniPk'
p105
F0.958009
sS'wgEncodeAwgTfbsSydhK562Gata2UcdUniPk'
p106
F0.928443
sS'wgEncodeAwgTfbsHaibT47dEraaV0416102Bpa1hUniPk'
p107
F0.887939
sS'wgEncodeAwgTfbsSydhHepg2Hnf4aForsklnUniPk'
p108
F0.921409
sS'wgEncodeAwgTfbsHaibGm12892Pax5c20V0416101UniPk'
p109
F0.862211
sS'wgEncodeAwgTfbsHaibH1hescFosl1sc183V0416102UniPk'
p110
F0.814691
sS'wgEncodeAwgTfbsHaibGm12878Egr1Pcr2xUniPk'
p111
F0.908578
sS'wgEncodeAwgTfbsSydhK562MaffIggrabUniPk'
p112
F0.970441
sS'wgEncodeAwgTfbsSydhH1hescSuz12UcdUniPk'
p113
F0.779836
sS'wgEncodeAwgTfbsHaibH1hescSp1Pcr1xUniPk'
p114
F0.857741
sS'wgEncodeAwgTfbsBroadK562Phf8a301772aUniPk'
p115
F0.776767
sS'wgEncodeAwgTfbsHaibGm12878Atf2sc81188V0422111UniPk'
p116
F0.867539
sS'wgEncodeAwgTfbsSydhK562CmycIfna6hUniPk'
p117
F0.836342
sS'wgEncodeAwgTfbsHaibPfsk1NrsfPcr2xUniPk'
p118
F0.895366
sS'wgEncodeAwgTfbsHaibA549Zbtb33V0422111Etoh02UniPk'
p119
F0.488965
sS'wgEncodeAwgTfbsUtaK562Pol2UniPk'
p120
F0.804604
sS'wgEncodeAwgTfbsHaibA549NrsfV0422111Etoh02UniPk'
p121
F0.639326
sS'wgEncodeAwgTfbsBroadGm12878Ezh239875UniPk'
p122
F0.720252
sS'wgEncodeAwgTfbsSydhHepg2Corestsc30189IggrabUniPk'
p123
F0.79052
sS'wgEncodeAwgTfbsUwAg09309CtcfUniPk'
p124
F0.979034
sS'wgEncodeAwgTfbsBroadHelas3Pol2bUniPk'
p125
F0.724854
sS'wgEncodeAwgTfbsSydhMcf10aesCfosEtoh01HvdUniPk'
p126
F0.970854
sS'wgEncodeAwgTfbsSydhK562Rfx5IggrabUniPk'
p127
F0.837481
sS'wgEncodeAwgTfbsSydhK562NfyaUniPk'
p128
F0.949995
sS'wgEncodeAwgTfbsSydhK562P300IggrabUniPk'
p129
F0.903416
sS'wgEncodeAwgTfbsHaibGm12878Mef2aPcr1xUniPk'
p130
F0.911396
sS'wgEncodeAwgTfbsBroadDnd41Ezh239875UniPk'
p131
F0.740534
sS'wgEncodeAwgTfbsSydhHepg2Pol2ForsklnUniPk'
p132
F0.792041
sS'wgEncodeAwgTfbsHaibHepg2Sin3ak20Pcr1xUniPk'
p133
F0.803212
sS'wgEncodeAwgTfbsHaibK562Pmlsc71910V0422111UniPk'
p134
F0.836798
sS'wgEncodeAwgTfbsSydhK562Arid3asc8821IggrabUniPk'
p135
F0.855702
sS'wgEncodeAwgTfbsSydhHelas3Stat3IggrabUniPk'
p136
F0.883889
sS'wgEncodeAwgTfbsSydhGm18951Pol2IggmusUniPk'
p137
F0.800624
sS'wgEncodeAwgTfbsHaibHepg2Mybl2sc81192V0422111UniPk'
p138
F0.812601
sS'wgEncodeAwgTfbsUtaHepg2CtcfUniPk'
p139
F0.991615
sS'wgEncodeAwgTfbsSydhU2osKap1UcdUniPk'
p140
F0.748302
sS'wgEncodeAwgTfbsUtaA549CtcfUniPk'
p141
F0.966241
sS'wgEncodeAwgTfbsSydhGm12878Corestsc30189IggmusUniPk'
p142
F0.761464
sS'wgEncodeAwgTfbsSydhK562Nrf1IggrabUniPk'
p143
F0.948153
sS'wgEncodeAwgTfbsSydhGm12878Brca1a300IggmusUniPk'
p144
F0.959509
sS'wgEncodeAwgTfbsUwGm12878CtcfUniPk'
p145
F0.983819
sS'wgEncodeAwgTfbsUtaGm19238CtcfUniPk'
p146
F0.948197
sS'wgEncodeAwgTfbsHaibK562CtcfcPcr1xUniPk'
p147
F0.979076
sS'wgEncodeAwgTfbsUtaGm19239CtcfUniPk'
p148
F0.962233
sS'wgEncodeAwgTfbsHaibHelas3Taf1Pcr1xUniPk'
p149
F0.80463
sS'wgEncodeAwgTfbsSydhGm12878Nrf1IggmusUniPk'
p150
F0.918668
sS'wgEncodeAwgTfbsHaibT47dEralphaaV0416102Est10nm1hUniPk'
p151
F0.905192
sS'wgEncodeAwgTfbsSydhK562Usf2IggrabUniPk'
p152
F0.950597
sS'wgEncodeAwgTfbsSydhK562CmycIfng30UniPk'
p153
F0.884448
sS'wgEncodeAwgTfbsSydhHelas3CebpbIggrabUniPk'
p154
F0.942461
sS'wgEncodeAwgTfbsHaibEcc1Foxa1sc6553V0416102Dm002p1hUniPk'
p155
F0.911649
sS'wgEncodeAwgTfbsSydhImr90Pol2IggrabUniPk'
p156
F0.791605
sS'wgEncodeAwgTfbsUwWerirb1CtcfUniPk'
p157
F0.97982
sS'wgEncodeAwgTfbsHaibEcc1Pol2V0416102Dm002p1hUniPk'
p158
F0.81102
sS'wgEncodeAwgTfbsHaibA549Usf1Pcr1xDex100nmUniPk'
p159
F0.90301
sS'wgEncodeAwgTfbsHaibHepg2Ctcfsc5916V0416101UniPk'
p160
F0.984757
sS'wgEncodeAwgTfbsHaibSknshNrsfV0416101UniPk'
p161
F0.730975
sS'wgEncodeAwgTfbsHaibGm12891Pu1Pcr1xUniPk'
p162
F0.968576
sS'wgEncodeAwgTfbsSydhHelas3Chd2IggrabUniPk'
p163
F0.883198
sS'wgEncodeAwgTfbsSydhHepg2Pol2IggrabUniPk'
p164
F0.772432
sS'wgEncodeAwgTfbsUwHeeCtcfUniPk'
p165
F0.978155
sS'wgEncodeAwgTfbsHaibHepg2NrsfPcr2xUniPk'
p166
F0.779449
sS'wgEncodeAwgTfbsSydhH1hescMafkIggrabUniPk'
p167
F0.975984
sS'wgEncodeAwgTfbsHaibK562Yy1V0416102UniPk'
p168
F0.907555
sS'wgEncodeAwgTfbsBroadK562Hdac6a301341aUniPk'
p169
F0.646374
sS'wgEncodeAwgTfbsSydhHepg2CebpbForsklnUniPk'
p170
F0.952528
sS'wgEncodeAwgTfbsSydhK562Ubfsc13125IggmusUniPk'
p171
F0.811848
sS'wgEncodeAwgTfbsSydhK562Pol2s2UniPk'
p172
F0.637254
sS'wgEncodeAwgTfbsHaibH1hescSrfPcr1xUniPk'
p173
F0.937641
sS'wgEncodeAwgTfbsSydhHek293Tcf7l2UcdUniPk'
p174
F0.853402
sS'wgEncodeAwgTfbsHaibHepg2Foxa1sc6553V0416101UniPk'
p175
F0.950957
sS'wgEncodeAwgTfbsUwHffmycCtcfUniPk'
p176
F0.973904
sS'wgEncodeAwgTfbsHaibGm12878Stat5asc74442V0422111UniPk'
p177
F0.817027
sS'wgEncodeAwgTfbsHaibGm12878Bcl3V0416101UniPk'
p178
F0.865739
sS'wgEncodeAwgTfbsSydhK562Rpc155UniPk'
p179
F0.488078
sS'wgEncodeAwgTfbsHaibH1hescCtcfsc5916V0416102UniPk'
p180
F0.981433
sS'wgEncodeAwgTfbsUwMcf7CtcfUniPk'
p181
F0.978346
sS'wgEncodeAwgTfbsHaibH1hescUsf1Pcr1xUniPk'
p182
F0.979446
sS'wgEncodeAwgTfbsSydhGm12891NfkbTnfaIggrabUniPk'
p183
F0.877082
sS'wgEncodeAwgTfbsSydhHepg2Brca1a300IggrabUniPk'
p184
F0.851118
sS'wgEncodeAwgTfbsSydhA549Rad21IggrabUniPk'
p185
F0.983731
sS'wgEncodeAwgTfbsHaibK562Cbx3sc101004V0422111UniPk'
p186
F0.803205
sS'wgEncodeAwgTfbsHaibH1hescTcf12Pcr1xUniPk'
p187
F0.894915
sS'wgEncodeAwgTfbsSydhK562Smc3ab9263IggrabUniPk'
p188
F0.976237
sS'wgEncodeAwgTfbsHaibHuvecPol2Pcr1xUniPk'
p189
F0.790973
sS'wgEncodeAwgTfbsUtaHepg2Pol2UniPk'
p190
F0.782475
sS'wgEncodeAwgTfbsHaibH1hescJundV0416102UniPk'
p191
F0.860348
sS'wgEncodeAwgTfbsSydhHelas3Mxi1af4185IggrabUniPk'
p192
F0.829612
sS'wgEncodeAwgTfbsHaibA549GrPcr2xDex100nmUniPk'
p193
F0.880782
sS'wgEncodeAwgTfbsHaibA549GrPcr1xDex50nmUniPk'
p194
F0.910741
sS'wgEncodeAwgTfbsSydhK562Mafkab50322IggrabUniPk'
p195
F0.972493
sS'wgEncodeAwgTfbsHaibHepg2Bhlhe40V0416101UniPk'
p196
F0.938682
sS'wgEncodeAwgTfbsSydhGm12878Pol3UniPk'
p197
F0.985624
sS'wgEncodeAwgTfbsSydhK562Tblr1ab24550IggrabUniPk'
p198
F0.509104
sS'wgEncodeAwgTfbsHaibA549Yy1cV0422111Etoh02UniPk'
p199
F0.865395
sS'wgEncodeAwgTfbsHaibK562SrfV0416101UniPk'
p200
F0.493733
sS'wgEncodeAwgTfbsHaibGm12878GabpPcr2xUniPk'
p201
F0.906863
sS'wgEncodeAwgTfbsSydhHepg2Srebp1InslnUniPk'
p202
F0.868535
sS'wgEncodeAwgTfbsSydhK562Znf274m01UcdUniPk'
p203
F0.825433
sS'wgEncodeAwgTfbsSydhHepg2Mafksc477IggrabUniPk'
p204
F0.985526
sS'wgEncodeAwgTfbsSydhHepg2Mafkab50322IggrabUniPk'
p205
F0.987907
sS'wgEncodeAwgTfbsHaibK562Nr2f2sc271940V0422111UniPk'
p206
F0.891604
sS'wgEncodeAwgTfbsSydhHek293Kap1UcdUniPk'
p207
F0.749499
sS'wgEncodeAwgTfbsSydhGm19193NfkbTnfaIggrabUniPk'
p208
F0.914339
sS'wgEncodeAwgTfbsHaibSknshTaf1V0416101UniPk'
p209
F0.84132
sS'wgEncodeAwgTfbsSydhK562CjunIfna30UniPk'
p210
F0.928176
sS'wgEncodeAwgTfbsBroadOsteoblCtcfUniPk'
p211
F0.906706
sS'wgEncodeAwgTfbsSydhHepg2Hsf1ForsklnUniPk'
p212
F0.933593
sS'wgEncodeAwgTfbsSydhNb4Pol2UniPk'
p213
F0.772766
sS'wgEncodeAwgTfbsHaibHepg2GabpPcr2xUniPk'
p214
F0.901517
sS'wgEncodeAwgTfbsHaibK562Sp2sc643V0416102UniPk'
p215
F0.882761
sS'wgEncodeAwgTfbsSydhGm12878Ikzf1iknuclaUniPk'
p216
F0.810229
sS'wgEncodeAwgTfbsSydhK562Atf3UniPk'
p217
F0.881041
sS'wgEncodeAwgTfbsHaibA549P300V0422111Etoh02UniPk'
p218
F0.859805
sS'wgEncodeAwgTfbsSydhHelas3Corestsc30189IggrabUniPk'
p219
F0.853665
sS'wgEncodeAwgTfbsSydhK562NelfeUniPk'
p220
F0.506433
sS'wgEncodeAwgTfbsSydhK562Pol2Ifna30UniPk'
p221
F0.497244
sS'wgEncodeAwgTfbsSydhK562Gtf2f1ab28179IggrabUniPk'
p222
F0.762296
sS'wgEncodeAwgTfbsHaibK562Taf7sc101167V0416101UniPk'
p223
F0.754894
sS'wgEncodeAwgTfbsBroadH1hescJarid1aab26049UniPk'
p224
F0.77571
sS'wgEncodeAwgTfbsSydhHelas3NfybIggrabUniPk'
p225
F0.928243
sS'wgEncodeAwgTfbsHaibHepg2Fosl2V0416101UniPk'
p226
F0.92716
sS'wgEncodeAwgTfbsHaibSknshraP300V0416102UniPk'
p227
F0.867402
sS'wgEncodeAwgTfbsUchicagoK562EfosUniPk'
p228
F0.960889
sS'wgEncodeAwgTfbsUwHpafCtcfUniPk'
p229
F0.977348
sS'wgEncodeAwgTfbsBroadK562Hdac2a300705aUniPk'
p230
F0.756054
sS'wgEncodeAwgTfbsHaibGm12878Pu1Pcr1xUniPk'
p231
F0.96515
sS'wgEncodeAwgTfbsSydhHepg2Bhlhe40cIggrabUniPk'
p232
F0.864514
sS'wgEncodeAwgTfbsSydhHepg2Pgc1aForsklnUniPk'
p233
F0.669863
sS'wgEncodeAwgTfbsHaibGm12878Nfatc1sc17834V0422111UniPk'
p234
F0.822128
sS'wgEncodeAwgTfbsSydhHct116Pol2UcdUniPk'
p235
F0.795403
sS'wgEncodeAwgTfbsHaibA549GrPcr1xDex500pmUniPk'
p236
F0.805619
sS'wgEncodeAwgTfbsUchicagoK562Egata2UniPk'
p237
F0.84408
sS'wgEncodeAwgTfbsSydhH1hescCtbp2UcdUniPk'
p238
F0.788108
sS'wgEncodeAwgTfbsSydhGm12878CfosUniPk'
p239
F0.972194
sS'wgEncodeAwgTfbsUchicagoK562EjunbUniPk'
p240
F0.922007
sS'wgEncodeAwgTfbsSydhHelas3P300sc584sc584IggrabUniPk'
p241
F0.91085
sS'wgEncodeAwgTfbsHaibGm12878Rad21V0416101UniPk'
p242
F0.971576
sS'wgEncodeAwgTfbsSydhMcf7Hae2f1UcdUniPk'
p243
F0.819921
sS'wgEncodeAwgTfbsSydhH1hescCebpbIggrabUniPk'
p244
F0.979004
sS'wgEncodeAwgTfbsHaibGm12878Bcl11aPcr1xUniPk'
p245
F0.914123
sS'wgEncodeAwgTfbsSydhGm12892Pol2IggmusUniPk'
p246
F0.492816
sS'wgEncodeAwgTfbsUwA549CtcfUniPk'
p247
F0.978395
sS'wgEncodeAwgTfbsBroadK562CtcfUniPk'
p248
F0.948538
sS'wgEncodeAwgTfbsSydhHelas3Nrf1IggmusUniPk'
p249
F0.953866
sS'wgEncodeAwgTfbsUwNhdfneoCtcfUniPk'
p250
F0.975329
sS'wgEncodeAwgTfbsUtaH1hescCmycUniPk'
p251
F0.643919
sS'wgEncodeAwgTfbsSydhHelas3CjunIggrabUniPk'
p252
F0.950848
sS'wgEncodeAwgTfbsHaibPanc1Pol24h8V0416101UniPk'
p253
F0.481349
sS'wgEncodeAwgTfbsBroadK562Plu1UniPk'
p254
F0.783279
sS'wgEncodeAwgTfbsUtaGm19240CtcfUniPk'
p255
F0.959532
sS'wgEncodeAwgTfbsHaibGm12878Tcf3Pcr1xUniPk'
p256
F0.86161
sS'wgEncodeAwgTfbsSydhK562Pol2UniPk'
p257
F0.497536
sS'wgEncodeAwgTfbsSydhGm12878E2f4IggmusUniPk'
p258
F0.849811
sS'wgEncodeAwgTfbsSydhHelas3Znf274UcdUniPk'
p259
F0.953947
sS'wgEncodeAwgTfbsSydhGm19193Pol2IggmusUniPk'
p260
F0.788046
sS'wgEncodeAwgTfbsHaibK562Mef2aV0416101UniPk'
p261
F0.506816
sS'wgEncodeAwgTfbsUwHcpeCtcfUniPk'
p262
F0.976817
sS'wgEncodeAwgTfbsSydhK562Tal1sc12984IggmusUniPk'
p263
F0.949316
sS'wgEncodeAwgTfbsHaibK562Tead4sc101184V0422111UniPk'
p264
F0.499475
sS'wgEncodeAwgTfbsSydhGm18526Pol2IggmusUniPk'
p265
F0.79568
sS'wgEncodeAwgTfbsUtaGm12878CmycUniPk'
p266
F0.77261
sS'wgEncodeAwgTfbsSydhGm12878Znf143166181apUniPk'
p267
F0.962478
sS'wgEncodeAwgTfbsHaibGm12878Pmlsc71910V0422111UniPk'
p268
F0.788289
sS'wgEncodeAwgTfbsHaibH1hescTaf7sc101167V0416102UniPk'
p269
F0.783924
sS'wgEncodeAwgTfbsHaibGm12878Pbx3Pcr1xUniPk'
p270
F0.889813
sS'wgEncodeAwgTfbsUtaMcf7CtcfUniPk'
p271
F0.502269
sS'wgEncodeAwgTfbsSydhImr90CebpbIggrabUniPk'
p272
F0.965831
sS'wgEncodeAwgTfbsHaibH1hescYy1sc281V0416102UniPk'
p273
F0.909546
sS'wgEncodeAwgTfbsUtaH1hescCtcfUniPk'
p274
F0.974992
sS'wgEncodeAwgTfbsSydhK562CjunIfna6hUniPk'
p275
F0.950159
sS'wgEncodeAwgTfbsHaibK562NrsfV0416102UniPk'
p276
F0.900286
sS'wgEncodeAwgTfbsUwSknshraCtcfUniPk'
p277
F0.979035
sS'wgEncodeAwgTfbsHaibHelas3GabpPcr1xUniPk'
p278
F0.920604
sS'wgEncodeAwgTfbsSydhMcf7Znf217UcdUniPk'
p279
F0.49806
sS'wgEncodeAwgTfbsSydhK562Znf143IggrabUniPk'
p280
F0.938831
sS'wgEncodeAwgTfbsSydhNt2d1Suz12UcdUniPk'
p281
F0.755418
sS'wgEncodeAwgTfbsSydhHelas3Rfx5200401194IggrabUniPk'
p282
F0.896268
sS'wgEncodeAwgTfbsSydhK562Ini1IggmusUniPk'
p283
F0.695287
sS'wgEncodeAwgTfbsBroadH1hescEzh239875UniPk'
p284
F0.495427
sS'wgEncodeAwgTfbsHaibH1hescNrsfV0416102UniPk'
p285
F0.957964
sS'wgEncodeAwgTfbsHaibK562Yy1V0416101UniPk'
p286
F0.898767
sS'wgEncodeAwgTfbsHaibHepg2JundPcr1xUniPk'
p287
F0.9148
sS'wgEncodeAwgTfbsSydhHepg2Smc3ab9263IggrabUniPk'
p288
F0.957447
sS'wgEncodeAwgTfbsHaibGm12892Pol2V0416102UniPk'
p289
F0.78461
sS'wgEncodeAwgTfbsSydhMcf10aesStat3Tam112hHvdUniPk'
p290
F0.951815
sS'wgEncodeAwgTfbsHaibK562Stat5asc74442V0422111UniPk'
p291
F0.909726
sS'wgEncodeAwgTfbsUtaProgfibCtcfUniPk'
p292
F0.500216
sS'wgEncodeAwgTfbsSydhGm12878WhipIggmusUniPk'
p293
F0.727043
sS'wgEncodeAwgTfbsSydhHelas3Baf170IggmusUniPk'
p294
F0.615678
sS'wgEncodeAwgTfbsSydhK562Stat2Ifna30UniPk'
p295
F0.847224
sS'wgEncodeAwgTfbsSydhK562CfosUniPk'
p296
F0.971697
sS'wgEncodeAwgTfbsBroadHmecEzh239875UniPk'
p297
F0.723473
sS'wgEncodeAwgTfbsBroadHuvecPol2bUniPk'
p298
F0.742866
sS'wgEncodeAwgTfbsUtaMcf7CtcfEstroUniPk'
p299
F0.973581
sS'wgEncodeAwgTfbsUwGm12873CtcfUniPk'
p300
F0.932232
sS'wgEncodeAwgTfbsHaibA549Pol2Pcr2xEtoh02UniPk'
p301
F0.764337
sS'wgEncodeAwgTfbsSydhHepg2TbpIggrabUniPk'
p302
F0.797155
sS'wgEncodeAwgTfbsHaibPfsk1Sin3ak20V0416101UniPk'
p303
F0.778372
sS'wgEncodeAwgTfbsSydhK562CjunIfng30UniPk'
p304
F0.944743
sS'wgEncodeAwgTfbsHaibGm12878Runx3sc101553V0422111UniPk'
p305
F0.914603
sS'wgEncodeAwgTfbsSydhGm12878Pol2s2IggmusUniPk'
p306
F0.759673
sS'wgEncodeAwgTfbsSydhHepg2Chd2ab68301IggrabUniPk'
p307
F0.862345
sS'wgEncodeAwgTfbsHaibA549Pol2Pcr2xDex100nmUniPk'
p308
F0.802706
sS'wgEncodeAwgTfbsBroadH1hescRbbp5a300109aUniPk'
p309
F0.784034
sS'wgEncodeAwgTfbsHaibGm12878Mef2csc13268V0416101UniPk'
p310
F0.909231
sS'wgEncodeAwgTfbsSydhHelas3Prdm19115IggrabUniPk'
p311
F0.927879
sS'wgEncodeAwgTfbsSydhK562Chd2ab68301IggrabUniPk'
p312
F0.882747
sS'wgEncodeAwgTfbsSydhGm10847Pol2IggmusUniPk'
p313
F0.812875
sS'wgEncodeAwgTfbsSydhGm12878Smc3ab9263IggmusUniPk'
p314
F0.957165
sS'wgEncodeAwgTfbsHaibPanc1Sin3ak20V0416101UniPk'
p315
F0.636793
sS'wgEncodeAwgTfbsSydhGm12878Stat1UniPk'
p316
F0.700224
sS'wgEncodeAwgTfbsSydhHepg2Mxi1UniPk'
p317
F0.848021
sS'wgEncodeAwgTfbsSydhGm12878Bhlhe40cIggmusUniPk'
p318
F0.892033
sS'wgEncodeAwgTfbsUwGm12801CtcfUniPk'
p319
F0.995566
sS'wgEncodeAwgTfbsSydhH1hescChd2IggrabUniPk'
p320
F0.866686
sS'wgEncodeAwgTfbsSydhK562Mazab85725IggrabUniPk'
p321
F0.894012
sS'wgEncodeAwgTfbsBroadK562Pol2bUniPk'
p322
F0.785426
sS'wgEncodeAwgTfbsBroadNhaCtcfUniPk'
p323
F0.979978
sS'wgEncodeAwgTfbsHaibSknshraCtcfV0416102UniPk'
p324
F0.989564
sS'wgEncodeAwgTfbsHaibGm12878RxraPcr1xUniPk'
p325
F0.784949
sS'wgEncodeAwgTfbsHaibHepg2Pol24h8V0416102UniPk'
p326
F0.783282
sS'wgEncodeAwgTfbsSydhGm15510Pol2IggmusUniPk'
p327
F0.500474
sS'wgEncodeAwgTfbsSydhHek293Elk4UcdUniPk'
p328
F0.804516
sS'wgEncodeAwgTfbsSydhHelas3Mazab85725IggrabUniPk'
p329
F0.496083
sS'wgEncodeAwgTfbsHaibHct116Pol24h8V0416101UniPk'
p330
F0.504652
sS'wgEncodeAwgTfbsUwGm12874CtcfUniPk'
p331
F0.984924
sS'wgEncodeAwgTfbsSydhGm12878P300IggmusUniPk'
p332
F0.859896
sS'wgEncodeAwgTfbsUwHmecCtcfUniPk'
p333
F0.494421
sS'wgEncodeAwgTfbsHaibA549GrPcr1xDex5nmUniPk'
p334
F0.909917
sS'wgEncodeAwgTfbsHaibK562Trim28sc81411V0422111UniPk'
p335
F0.842325
sS'wgEncodeAwgTfbsHaibGm12878Pou2f2Pcr1xUniPk'
p336
F0.85584
sS'wgEncodeAwgTfbsBroadHmecCtcfUniPk'
p337
F0.983454
sS'wgEncodeAwgTfbsSydhK562Znf263UcdUniPk'
p338
F0.50753
sS'wgEncodeAwgTfbsSydhK562Mxi1af4185IggrabUniPk'
p339
F0.517369
sS'wgEncodeAwgTfbsSydhH1hescBrca1IggrabUniPk'
p340
F0.86785
sS'wgEncodeAwgTfbsHaibH1hescTead4sc101184V0422111UniPk'
p341
F0.949362
sS'wgEncodeAwgTfbsHaibK562Fosl1sc183V0416101UniPk'
p342
F0.966974
sS'wgEncodeAwgTfbsHaibA549Creb1sc240V0416102Dex100nmUniPk'
p343
F0.882256
sS'wgEncodeAwgTfbsHaibGm12878Zeb1sc25388V0416102UniPk'
p344
F0.84816
sS'wgEncodeAwgTfbsHaibU87NrsfPcr2xUniPk'
p345
F0.849936
sS'wgEncodeAwgTfbsSydhGm12878Stat3IggmusUniPk'
p346
F0.76294
sS'wgEncodeAwgTfbsSydhHelas3Stat1Ifng30UniPk'
p347
F0.850096
sS'wgEncodeAwgTfbsSydhImr90CtcfbIggrabUniPk'
p348
F0.982032
sS'wgEncodeAwgTfbsUtaH1hescPol2UniPk'
p349
F0.504972
sS'wgEncodeAwgTfbsHaibEcc1EralphaaV0416102Est10nm1hUniPk'
p350
F0.773318
sS'wgEncodeAwgTfbsBroadHsmmtEzh239875UniPk'
p351
F0.723316
sS'wgEncodeAwgTfbsSydhGm12878Elk112771IggmusUniPk'
p352
F0.493492
sS'wgEncodeAwgTfbsSydhK562Setdb1MnasedUcdUniPk'
p353
F0.720112
sS'wgEncodeAwgTfbsSydhGm12878Rfx5200401194IggmusUniPk'
p354
F0.830779
sS'wgEncodeAwgTfbsSydhK562Nfe2UniPk'
p355
F0.99114
sS'wgEncodeAwgTfbsHaibSknmcPol24h8V0416101UniPk'
p356
F0.840338
sS'wgEncodeAwgTfbsSydhK562Ubtfsab1404509IggmusUniPk'
p357
F0.824322
sS'wgEncodeAwgTfbsHaibEcc1GrV0416102Dex100nmUniPk'
p358
F0.8675
sS'wgEncodeAwgTfbsUtaMcf7CmycSerumstvdUniPk'
p359
F0.79668
sS'wgEncodeAwgTfbsSydhHepg2Znf274UcdUniPk'
p360
F0.969473
sS'wgEncodeAwgTfbsBroadH1hescCtcfUniPk'
p361
F0.975964
sS'wgEncodeAwgTfbsHaibGm12878Pax5c20Pcr1xUniPk'
p362
F0.889257
sS'wgEncodeAwgTfbsUwGm06990CtcfUniPk'
p363
F0.980556
sS'wgEncodeAwgTfbsSydhMcf10aesStat3TamUniPk'
p364
F0.954444
sS'wgEncodeAwgTfbsHaibHepg2NrsfV0416101UniPk'
p365
F0.795812
sS'wgEncodeAwgTfbsHaibK562GabpV0416101UniPk'
p366
F0.91267
sS'wgEncodeAwgTfbsUwBe2cCtcfUniPk'
p367
F0.97725
sS'wgEncodeAwgTfbsHaibHepg2Tcf12Pcr1xUniPk'
p368
F0.508622
sS'wgEncodeAwgTfbsSydhMcf7Gata3UcdUniPk'
p369
F0.813027
sS'wgEncodeAwgTfbsSydhGm12878Tr4UniPk'
p370
F0.806984
sS'wgEncodeAwgTfbsSydhHepg2Grp20ForsklnUniPk'
p371
F0.857527
sS'wgEncodeAwgTfbsUtaMcf7CmycVehUniPk'
p372
F0.852831
sS'wgEncodeAwgTfbsUwHrpeCtcfUniPk'
p373
F0.982807
sS'wgEncodeAwgTfbsHaibSknshSin3ak20V0416101UniPk'
p374
F0.697903
sS'wgEncodeAwgTfbsSydhHelas3Smc3ab9263IggrabUniPk'
p375
F0.948717
sS'wgEncodeAwgTfbsHaibGm12878BatfPcr1xUniPk'
p376
F0.950898
sS'wgEncodeAwgTfbsHaibA549Fosl2V0422111Etoh02UniPk'
p377
F0.943138
sS'wgEncodeAwgTfbsHaibSknshNrsfPcr2xUniPk'
p378
F0.830741
sS'wgEncodeAwgTfbsSydhShsy5yGata3sc269sc269UcdUniPk'
p379
F0.839781
sS'wgEncodeAwgTfbsSydhK562Gata1UcdUniPk'
p380
F0.946796
sS'wgEncodeAwgTfbsSydhK562Tf3c110UniPk'
p381
F0.972835
sS'wgEncodeAwgTfbsBroadK562Rbbp5a300109aUniPk'
p382
F0.775093
sS'wgEncodeAwgTfbsSydhHelas3Elk4UcdUniPk'
p383
F0.888557
sS'wgEncodeAwgTfbsSydhHelas3Hae2f1UniPk'
p384
F0.866553
sS'wgEncodeAwgTfbsSydhGm12878NfyaIggmusUniPk'
p385
F0.480208
sS'wgEncodeAwgTfbsSydhPanc1Tcf7l2UcdUniPk'
p386
F0.750776
sS'wgEncodeAwgTfbsSydhImr90MafkIggrabUniPk'
p387
F0.941106
sS'wgEncodeAwgTfbsSydhGm12878P300bUniPk'
p388
F0.914986
sS'wgEncodeAwgTfbsHaibGm12878Tcf12Pcr1xUniPk'
p389
F0.891274
sS'wgEncodeAwgTfbsUtaHuvecCmycUniPk'
p390
F0.475742
sS'wgEncodeAwgTfbsSydhGm10847NfkbTnfaIggrabUniPk'
p391
F0.744078
sS'wgEncodeAwgTfbsUwK562CtcfUniPk'
p392
F0.982412
sS'wgEncodeAwgTfbsSydhK562Brf2UniPk'
p393
F0.662068
sS'wgEncodeAwgTfbsHaibHepg2Yy1sc281V0416101UniPk'
p394
F0.873099
sS'wgEncodeAwgTfbsSydhK562E2f4UcdUniPk'
p395
F0.849852
sS'wgEncodeAwgTfbsUwAg04449CtcfUniPk'
p396
F0.975474
sS'wgEncodeAwgTfbsSydhHelas3Ap2alphaUniPk'
p397
F0.893603
sS'wgEncodeAwgTfbsHaibH1hescRad21V0416102UniPk'
p398
F0.962059
sS'wgEncodeAwgTfbsHaibA549Tcf12V0422111Etoh02UniPk'
p399
F0.502719
sS'wgEncodeAwgTfbsSydhH1hescGtf2f1IggrabUniPk'
p400
F0.774133
sS'wgEncodeAwgTfbsSydhHuvecMaxUniPk'
p401
F0.922514
sS'wgEncodeAwgTfbsHaibU87Pol24h8V0416101UniPk'
p402
F0.709229
sS'wgEncodeAwgTfbsSydhHepg2Nrf1IggrabUniPk'
p403
F0.976703
sS'wgEncodeAwgTfbsSydhK562Bach1sc14700IggrabUniPk'
p404
F0.936681
sS'wgEncodeAwgTfbsSydhHelas3NfyaIggrabUniPk'
p405
F0.793514
sS'wgEncodeAwgTfbsSydhGm12878Sin3anb6001263IggmusUniPk'
p406
F0.778663
sS'wgEncodeAwgTfbsSydhHepg2Tr4UcdUniPk'
p407
F0.873623
sS'wgEncodeAwgTfbsSydhHelas3Tcf7l2c9b92565UcdUniPk'
p408
F0.834027
sS'wgEncodeAwgTfbsHaibA549Ctcfsc5916Pcr1xEtoh02UniPk'
p409
F0.485167
sS'wgEncodeAwgTfbsHaibGm12878Cebpbsc150V0422111UniPk'
p410
F0.848882
sS'wgEncodeAwgTfbsSydhHelas3Usf2IggmusUniPk'
p411
F0.491661
sS'wgEncodeAwgTfbsSydhShsy5yGata2UcdUniPk'
p412
F0.898166
sS'wgEncodeAwgTfbsSydhK562Corestab24166IggrabUniPk'
p413
F0.851254
sS'wgEncodeAwgTfbsUwHl60CtcfUniPk'
p414
F0.506026
sS'wgEncodeAwgTfbsHaibGm12878Taf1Pcr1xUniPk'
p415
F0.81719
sS'wgEncodeAwgTfbsHaibGm12891Taf1Pcr1xUniPk'
p416
F0.810831
sS'wgEncodeAwgTfbsSydhHelas3JundIggrabUniPk'
p417
F0.501679
sS'wgEncodeAwgTfbsHaibGm12878Irf4sc6059Pcr1xUniPk'
p418
F0.903615
sS'wgEncodeAwgTfbsHaibH1hescAtf3V0416102UniPk'
p419
F0.932896
sS'wgEncodeAwgTfbsSydhGm12878Rad21IggrabUniPk'
p420
F0.970575
sS'wgEncodeAwgTfbsHaibA549Taf1V0422111Etoh02UniPk'
p421
F0.753096
sS'wgEncodeAwgTfbsBroadHepg2Ezh239875UniPk'
p422
F0.69508
sS'wgEncodeAwgTfbsHaibHelas3NrsfPcr1xUniPk'
p423
F0.953851
sS'wgEncodeAwgTfbsHaibK562Sp1Pcr1xUniPk'
p424
F0.869209
sS'wgEncodeAwgTfbsHaibSknshraUsf1sc8983V0416102UniPk'
p425
F0.941566
sS'wgEncodeAwgTfbsHaibH1hescGabpPcr1xUniPk'
p426
F0.893275
sS'wgEncodeAwgTfbsSydhHepg2ErraForsklnUniPk'
p427
F0.874477
sS'wgEncodeAwgTfbsUwNb4CtcfUniPk'
p428
F0.985533
sS'wgEncodeAwgTfbsUwHcmCtcfUniPk'
p429
F0.96895
sS'wgEncodeAwgTfbsHaibHepg2Hdac2sc6296V0416101UniPk'
p430
F0.87402
sS'wgEncodeAwgTfbsSydhK562CjunIfng6hUniPk'
p431
F0.941792
sS'wgEncodeAwgTfbsSydhHelas3E2f6UniPk'
p432
F0.508234
sS'wgEncodeAwgTfbsHaibK562Usf1V0416101UniPk'
p433
F0.499961
sS'wgEncodeAwgTfbsUtaMcf7Pol2SerumstvdUniPk'
p434
F0.814507
sS'wgEncodeAwgTfbsBroadK562Chd1a301218aUniPk'
p435
F0.732687
sS'wgEncodeAwgTfbsSydhMcf10aesCfosTam112hHvdUniPk'
p436
F0.962609
sS'wgEncodeAwgTfbsSydhRajiPol2UcdUniPk'
p437
F0.790666
sS'wgEncodeAwgTfbsSydhK562Pol2Ifng30UniPk'
p438
F0.799435
sS'wgEncodeAwgTfbsSydhGm12878Chd2ab68301IggmusUniPk'
p439
F0.817422
sS'wgEncodeAwgTfbsBroadHelas3CtcfUniPk'
p440
F0.502691
sS'wgEncodeAwgTfbsSydhK562Elk112771IggrabUniPk'
p441
F0.889413
sS'wgEncodeAwgTfbsHaibK562Sin3ak20V0416101UniPk'
p442
F0.826025
sS'wgEncodeAwgTfbsSydhHepg2Maffm8194IggrabUniPk'
p443
F0.982957
sS'wgEncodeAwgTfbsHaibEcc1EralphaaV0416102Gen1hUniPk'
p444
F0.823053
sS'wgEncodeAwgTfbsSydhK562Brg1IggmusUniPk'
p445
F0.771503
sS'wgEncodeAwgTfbsUwHpfCtcfUniPk'
p446
F0.980462
sS'wgEncodeAwgTfbsHaibGm12878Atf3Pcr1xUniPk'
p447
F0.513023
sS'wgEncodeAwgTfbsSydhGm19099Pol2IggmusUniPk'
p448
F0.783349
sS'wgEncodeAwgTfbsUwHepg2CtcfUniPk'
p449
F0.981783
sS'wgEncodeAwgTfbsSydhGm12878Ebf1sc137065UniPk'
p450
F0.921303
sS'wgEncodeAwgTfbsHaibT47dCtcfsc5916V0416102Dm002p1hUniPk'
p451
F0.979938
sS'wgEncodeAwgTfbsSydhH1hescRad21IggrabUniPk'
p452
F0.977034
sS'wgEncodeAwgTfbsBroadHsmmCtcfUniPk'
p453
F0.975861
sS'wgEncodeAwgTfbsHaibHepg2Taf1Pcr2xUniPk'
p454
F0.811946
sS'wgEncodeAwgTfbsHaibK562Taf1V0416101UniPk'
p455
F0.825742
sS'wgEncodeAwgTfbsHaibH1hescSix5Pcr1xUniPk'
p456
F0.924492
sS'wgEncodeAwgTfbsSydhHelas3Gtf2f1ab28179IggrabUniPk'
p457
F0.817252
sS'wgEncodeAwgTfbsUwHuvecCtcfUniPk'
p458
F0.979894
sS'wgEncodeAwgTfbsHaibSknshraYy1sc281V0416102UniPk'
p459
F0.889905
sS'wgEncodeAwgTfbsHaibGm12892Taf1V0416102UniPk'
p460
F0.726648
sS'wgEncodeAwgTfbsHaibK562Atf3V0416101UniPk'
p461
F0.919785
sS'wgEncodeAwgTfbsUwHcfaaCtcfUniPk'
p462
F0.507981
sS'wgEncodeAwgTfbsSydhGm12878Mxi1IggmusUniPk'
p463
F0.815477
sS'wgEncodeAwgTfbsUwAg10803CtcfUniPk'
p464
F0.978704
sS'wgEncodeAwgTfbsUtaProgfibPol2UniPk'
p465
F0.693283
sS'wgEncodeAwgTfbsHaibHepg2Foxa2sc6554V0416101UniPk'
p466
F0.950717
sS'wgEncodeAwgTfbsHaibHepg2Cebpbsc150V0416101UniPk'
p467
F0.972278
sS'wgEncodeAwgTfbsSydhH1hescMxi1IggrabUniPk'
p468
F0.812616
sS'wgEncodeAwgTfbsHaibGm12891Yy1sc281V0416101UniPk'
p469
F0.892191
sS'wgEncodeAwgTfbsHaibGm12878Usf1Pcr2xUniPk'
p470
F0.938482
sS'wgEncodeAwgTfbsSydhGm12878Nfe2sc22827UniPk'
p471
F0.950797
sS'wgEncodeAwgTfbsUwHmfCtcfUniPk'
p472
F0.970929
sS'wgEncodeAwgTfbsSydhHelas3Pol2UniPk'
p473
F0.797118
sS'wgEncodeAwgTfbsSydhK562Pol2s2IggrabUniPk'
p474
F0.698747
sS'wgEncodeAwgTfbsSydhK562CebpbIggrabUniPk'
p475
F0.97443
sS'wgEncodeAwgTfbsHaibPfsk1Foxp2Pcr2xUniPk'
p476
F0.858396
sS'wgEncodeAwgTfbsSydhK562Irf1Ifna6hUniPk'
p477
F0.868853
sS'wgEncodeAwgTfbsHaibH1hescSp2V0422111UniPk'
p478
F0.932706
sS'wgEncodeAwgTfbsSydhGm12891Pol2IggmusUniPk'
p479
F0.75996
sS'wgEncodeAwgTfbsUchicagoK562Ehdac8UniPk'
p480
F0.686251
sS'wgEncodeAwgTfbsSydhK562Yy1UcdUniPk'
p481
F0.958065
sS'wgEncodeAwgTfbsHaibGm12891Pou2f2Pcr1xUniPk'
p482
F0.83958
sS'wgEncodeAwgTfbsSydhHelas3Znf143IggrabUniPk'
p483
F0.895357
sS'wgEncodeAwgTfbsSydhK562Kap1UcdUniPk'
p484
F0.827995
sS'wgEncodeAwgTfbsSydhGm12878Usf2IggmusUniPk'
p485
F0.892598
sS'wgEncodeAwgTfbsSydhNt2d1Yy1UcdUniPk'
p486
F0.941858
sS'wgEncodeAwgTfbsUwRptecCtcfUniPk'
p487
F0.974961
sS'wgEncodeAwgTfbsHaibH1hescPou5f1sc9081V0416102UniPk'
p488
F0.930991
sS'wgEncodeAwgTfbsSydhHepg2MaxIggrabUniPk'
p489
F0.867769
sS'wgEncodeAwgTfbsHaibH1hescP300V0416102UniPk'
p490
F0.844835
sS'wgEncodeAwgTfbsSydhK562Gtf2bUniPk'
p491
F0.793599
sS'wgEncodeAwgTfbsSydhHelas3Bdp1UniPk'
p492
F0.767977
sS'wgEncodeAwgTfbsHaibEcc1EraaV0416102Bpa1hUniPk'
p493
F0.862781
sS'wgEncodeAwgTfbsSydhHek293tZnf263UcdUniPk'
p494
F0.861307
sS'wgEncodeAwgTfbsSydhK562CtcfbIggrabUniPk'
p495
F0.977909
sS'wgEncodeAwgTfbsSydhHct116Tcf7l2UcdUniPk'
p496
F0.87335
sS'wgEncodeAwgTfbsSydhK562Atf106325UniPk'
p497
F0.905106
sS'wgEncodeAwgTfbsSydhK562Hmgn3UniPk'
p498
F0.821896
sS'wgEncodeAwgTfbsUwHek293CtcfUniPk'
p499
F0.982755
sS'wgEncodeAwgTfbsHaibHct116Yy1sc281V0416101UniPk'
p500
F0.899819
sS'wgEncodeAwgTfbsHaibK562Bcl3Pcr1xUniPk'
p501
F0.778486
sS'wgEncodeAwgTfbsHaibGm12878Nficsc81335V0422111UniPk'
p502
F0.88308
sS'wgEncodeAwgTfbsUtaHepg2CmycUniPk'
p503
F0.847535
sS'wgEncodeAwgTfbsSydhHepg2CjunIggrabUniPk'
p504
F0.967727
sS'wgEncodeAwgTfbsHaibGm12878SrfPcr2xUniPk'
p505
F0.899835
sS'wgEncodeAwgTfbsSydhGm18951NfkbTnfaIggrabUniPk'
p506
F0.848884
sS'wgEncodeAwgTfbsSydhHelas3Ap2gammaUniPk'
p507
F0.884184
sS'wgEncodeAwgTfbsHaibGm12878Pol2Pcr2xUniPk'
p508
F0.788429
sS'wgEncodeAwgTfbsSydhH1hescTbpIggrabUniPk'
p509
F0.808941
sS'wgEncodeAwgTfbsHaibK562Six5Pcr1xUniPk'
p510
F0.867203
sS'wgEncodeAwgTfbsSydhHelas3MaxIggrabUniPk'
p511
F0.856806
sS'wgEncodeAwgTfbsSydhK562NfybUniPk'
p512
F0.981695
sS'wgEncodeAwgTfbsUtaHelas3CmycUniPk'
p513
F0.844759
sS'wgEncodeAwgTfbsSydhGm12878Yy1UniPk'
p514
F0.874239
sS'wgEncodeAwgTfbsSydhMcf10aesPol2Etoh01UniPk'
p515
F0.788488
sS'wgEncodeAwgTfbsHaibH1hescPol24h8V0416102UniPk'
p516
F0.778168
sS'wgEncodeAwgTfbsUtaNhekCtcfUniPk'
p517
F0.966486
sS'wgEncodeAwgTfbsBroadHsmmEzh239875UniPk'
p518
F0.711269
sS'wgEncodeAwgTfbsSydhPbdefetalGata1UcdUniPk'
p519
F0.91858
sS'wgEncodeAwgTfbsSydhK562Pol2Ifna6hUniPk'
p520
F0.788897
sS'wgEncodeAwgTfbsSydhK562CmycUniPk'
p521
F0.85523
sS'wgEncodeAwgTfbsUtaMcf7Pol2UniPk'
p522
F0.818262
sS'wgEncodeAwgTfbsSydhHelas3MafkIggrabUniPk'
p523
F0.942353
sS'wgEncodeAwgTfbsSydhH1hescZnf143IggrabUniPk'
p524
F0.935791
sS'wgEncodeAwgTfbsHaibK562Pol2V0416101UniPk'
p525
F0.780642
sS'wgEncodeAwgTfbsHaibA549Sin3ak20V0422111Etoh02UniPk'
p526
F0.509658
sS'wgEncodeAwgTfbsHaibT47dP300V0416102Dm002p1hUniPk'
p527
F0.868197
sS'wgEncodeAwgTfbsHaibHepg2Sp1Pcr1xUniPk'
p528
F0.880615
sS'wgEncodeAwgTfbsHaibGm12878Yy1sc281Pcr1xUniPk'
p529
F0.499727
sS'wgEncodeAwgTfbsUwHreCtcfUniPk'
p530
F0.983875
sS'wgEncodeAwgTfbsHaibA549Ets1V0422111Etoh02UniPk'
p531
F0.827037
sS'wgEncodeAwgTfbsSydhGm12878NfkbTnfaIggrabUniPk'
p532
F0.88964
sS'wgEncodeAwgTfbsSydhHepg2JundIggrabUniPk'
p533
F0.978188
sS'wgEncodeAwgTfbsSydhK562Tblr1nb600270IggrabUniPk'
p534
F0.892603
sS'wgEncodeAwgTfbsHaibHepg2RxraPcr1xUniPk'
p535
F0.496471
sS'wgEncodeAwgTfbsSydhK562JundIggrabUniPk'
p536
F0.926623
sS'wgEncodeAwgTfbsSydhHelas3Spt20UniPk'
p537
F0.516099
sS'wgEncodeAwgTfbsUtaK562CtcfUniPk'
p538
F0.983393
sS'wgEncodeAwgTfbsSydhHelas3Tcf7l2UcdUniPk'
p539
F0.811502
sS'wgEncodeAwgTfbsBroadNhlfCtcfUniPk'
p540
F0.973063
sS'wgEncodeAwgTfbsSydhK562Pol2Ifng6hUniPk'
p541
F0.791268
sS'wgEncodeAwgTfbsHaibK562Bclaf101388Pcr1xUniPk'
p542
F0.739278
sS'wgEncodeAwgTfbsUtaK562CmycUniPk'
p543
F0.885254
sS'wgEncodeAwgTfbsUtaMcf7CtcfVehUniPk'
p544
F0.972819
sS'wgEncodeAwgTfbsSydhMcf10aesE2f4TamHvdUniPk'
p545
F0.90575
sS'wgEncodeAwgTfbsHaibGm12878Sp1Pcr1xUniPk'
p546
F0.883883
sS'wgEncodeAwgTfbsHaibGm12878Pax5n19Pcr1xUniPk'
p547
F0.877881
sS'wgEncodeAwgTfbsSydhK562Brf1UniPk'
p548
F0.818182
sS'wgEncodeAwgTfbsHaibK562Zbtb33Pcr1xUniPk'
p549
F0.857507
sS'wgEncodeAwgTfbsSydhGm12878Mazab85725IggmusUniPk'
p550
F0.784477
sS'wgEncodeAwgTfbsHaibK562Ctcflsc98982V0416101UniPk'
p551
F0.96933
sS'wgEncodeAwgTfbsUtaGm12892CtcfUniPk'
p552
F0.93727
sS'wgEncodeAwgTfbsHaibA549Foxa1V0416102Dex100nmUniPk'
p553
F0.490971
sS'wgEncodeAwgTfbsSydhH1hescCmycIggrabUniPk'
p554
F0.849305
sS'wgEncodeAwgTfbsSydhMcf10aesStat3Etoh01UniPk'
p555
F0.939463
sS'wgEncodeAwgTfbsSydhH1hescNrf1IggrabUniPk'
p556
F0.942549
sS'wgEncodeAwgTfbsHaibH1hescTaf1V0416102UniPk'
p557
F0.498294
sS'wgEncodeAwgTfbsUwGm12872CtcfUniPk'
p558
F0.977568
sS'wgEncodeAwgTfbsSydhK562CmycIfna30UniPk'
p559
F0.83274
sS'wgEncodeAwgTfbsUtaHuvecPol2UniPk'
p560
F0.825354
sS'wgEncodeAwgTfbsSydhMcf10aesCfosTam14hHvdUniPk'
p561
F0.961642
sS'wgEncodeAwgTfbsHaibH1hescPol2V0416102UniPk'
p562
F0.779243
sS'wgEncodeAwgTfbsBroadNhekPol2bUniPk'
p563
F0.713029
sS'wgEncodeAwgTfbsSydhHuvecCjunUniPk'
p564
F0.964957
sS'wgEncodeAwgTfbsUtaA549Pol2UniPk'
p565
F0.813329
sS'wgEncodeAwgTfbsUwGm12875CtcfUniPk'
p566
F0.497688
sS'wgEncodeAwgTfbsSydhK562Stat2Ifna6hUniPk'
p567
F0.910197
sS'wgEncodeAwgTfbsSydhMcf10aesStat3Etoh01cUniPk'
p568
F0.477065
sS'wgEncodeAwgTfbsBroadHsmmtCtcfUniPk'
p569
F0.969315
sS'wgEncodeAwgTfbsSydhHuvecPol2UniPk'
p570
F0.795814
sS'wgEncodeAwgTfbsSydhH1hescBach1sc14700IggrabUniPk'
p571
F0.49762
sS'wgEncodeAwgTfbsUwNhlfCtcfUniPk'
p572
F0.970176
sS'wgEncodeAwgTfbsSydhHelas3Zzz3UniPk'
p573
F0.866512
sS'wgEncodeAwgTfbsHaibGm12891Pol2Pcr1xUniPk'
p574
F0.766551
sS'wgEncodeAwgTfbsSydhK562Irf1Ifng6hUniPk'
p575
F0.888836
sS'wgEncodeAwgTfbsUtaMcf7CmycEstroUniPk'
p576
F0.741814
sS'wgEncodeAwgTfbsUtaGm12878Pol2UniPk'
p577
F0.657543
sS'wgEncodeAwgTfbsHaibA549GabpV0422111Etoh02UniPk'
p578
F0.872693
sS'wgEncodeAwgTfbsHaibHepg2Usf1Pcr1xUniPk'
p579
F0.9694
sS'wgEncodeAwgTfbsSydhH1hescJundIggrabUniPk'
p580
F0.929335
sS'wgEncodeAwgTfbsUwHacCtcfUniPk'
p581
F0.504058
sS'wgEncodeAwgTfbsBroadH1hescChd1a301218aUniPk'
p582
F0.738207
sS'wgEncodeAwgTfbsHaibK562Hdac2sc6296V0416102UniPk'
p583
F0.849793
sS'wgEncodeAwgTfbsHaibK562E2f6V0416102UniPk'
p584
F0.49426
sS'wgEncodeAwgTfbsSydhK562Tr4UcdUniPk'
p585
F0.843588
sS'wgEncodeAwgTfbsHaibA549Atf3V0422111Etoh02UniPk'
p586
F0.842819
sS'wgEncodeAwgTfbsHaibHepg2Foxa1sc101058V0416101UniPk'
p587
F0.941808
sS'wgEncodeAwgTfbsSydhHuvecCfosUcdUniPk'
p588
F0.955777
sS'wgEncodeAwgTfbsBroadHuvecCtcfUniPk'
p589
F0.978662
sS'wgEncodeAwgTfbsHaibHepg2Tead4sc101184V0422111UniPk'
p590
F0.879681
sS'wgEncodeAwgTfbsBroadNhlfEzh239875UniPk'
p591
F0.750024
sS'wgEncodeAwgTfbsBroadNhdfadEzh239875UniPk'
p592
F0.767098
sS'wgEncodeAwgTfbsSydhK562Sirt6UniPk'
p593
F0.866009
sS'wgEncodeAwgTfbsHaibGm12892Pol24h8V0416102UniPk'
p594
F0.762819
sS'wgEncodeAwgTfbsSydhHelas3E2f4UniPk'
p595
F0.854213
sS'wgEncodeAwgTfbsSydhHelas3Pol2s2IggrabUniPk'
p596
F0.501076
sS'wgEncodeAwgTfbsUtaGlioblaCtcfUniPk'
p597
F0.967393
sS'wgEncodeAwgTfbsUwAg09319CtcfUniPk'
p598
F0.976648
sS'wgEncodeAwgTfbsHaibGm12878Ebf1sc137065Pcr1xUniPk'
p599
F0.895347
sS'wgEncodeAwgTfbsSydhK562Rad21UniPk'
p600
F0.502238
sS'wgEncodeAwgTfbsSydhGm18526NfkbTnfaIggrabUniPk'
p601
F0.862177
sS'wgEncodeAwgTfbsSydhK562Stat1Ifna30UniPk'
p602
F0.849121
sS'wgEncodeAwgTfbsHaibHepg2Zbtb33Pcr1xUniPk'
p603
F0.870136
sS'wgEncodeAwgTfbsUtaMcf7CtcfSerumstvdUniPk'
p604
F0.950064
sS'wgEncodeAwgTfbsSydhImr90Rad21IggrabUniPk'
p605
F0.966002
sS'wgEncodeAwgTfbsSydhMcf10aesCmycTam14hHvdUniPk'
p606
F0.902889
sS'wgEncodeAwgTfbsBroadNhaEzh239875UniPk'
p607
F0.762775
sS'wgEncodeAwgTfbsSydhHepg2Arid3anb100279IggrabUniPk'
p608
F0.874259
sS'wgEncodeAwgTfbsSydhA549Bhlhe40IggrabUniPk'
p609
F0.910297
sS'wgEncodeAwgTfbsSydhMcf7Gata3sc269UcdUniPk'
p610
F0.846241
sS'wgEncodeAwgTfbsHaibH1hescAtf2sc81188V0422111UniPk'
p611
F0.816193
sS'wgEncodeAwgTfbsBroadNhekCtcfUniPk'
p612
F0.968845
sS'wgEncodeAwgTfbsSydhNt2d1Znf274UcdUniPk'
p613
F0.962985
sS'wgEncodeAwgTfbsBroadHuvecEzh239875UniPk'
p614
F0.770324
sS'wgEncodeAwgTfbsHaibT47dFoxa1sc6553V0416102Dm002p1hUniPk'
p615
F0.943949
sS'wgEncodeAwgTfbsHaibA549Ctcfsc5916Pcr1xDex100nmUniPk'
p616
F0.989105
sS'wgEncodeAwgTfbsSydhHepg2Pol2s2IggrabUniPk'
p617
F0.706129
sS'wgEncodeAwgTfbsHaibHepg2SrfV0416101UniPk'
p618
F0.912487
sS'wgEncodeAwgTfbsSydhA549Pol2s2IggrabUniPk'
p619
F0.672273
sS'wgEncodeAwgTfbsSydhGm19099NfkbTnfaIggrabUniPk'
p620
F0.904083
sS'wgEncodeAwgTfbsSydhH1hescRfx5200401194IggrabUniPk'
p621
F0.897804
sS'wgEncodeAwgTfbsSydhHelas3Zkscan1hpa006672IggrabUniPk'
p622
F0.510728
sS'wgEncodeAwgTfbsHaibK562Cebpbsc150V0422111UniPk'
p623
F0.946805
sS'wgEncodeAwgTfbsSydhMcf10aesCfosTamHvdUniPk'
p624
F0.968035
sS'wgEncodeAwgTfbsUchicagoK562EjundUniPk'
p625
F0.912146
sS'wgEncodeAwgTfbsSydhK562Irf1Ifna30UniPk'
p626
F0.510157
sS'wgEncodeAwgTfbsHaibGm12878Bclaf101388V0416101UniPk'
p627
F0.487029
sS'wgEncodeAwgTfbsHaibHepg2Mbd4sc271530V0422111UniPk'
p628
F0.775725
sS'wgEncodeAwgTfbsSydhK562E2f6UcdUniPk'
p629
F0.829423
sS'wgEncodeAwgTfbsUtaMcf7CmycSerumstimUniPk'
p630
F0.672473
sS'wgEncodeAwgTfbsHaibK562Egr1V0416101UniPk'
p631
F0.932678
sS'wgEncodeAwgTfbsSydhHelas3Irf3IggrabUniPk'
p632
F0.942501
sS'wgEncodeAwgTfbsSydhH1hescCjunIggrabUniPk'
p633
F0.920634
sS'wgEncodeAwgTfbsSydhHelas3CmycUniPk'
p634
F0.855401
sS'wgEncodeAwgTfbsSydhHelas3TbpIggrabUniPk'
p635
F0.820874
sS'wgEncodeAwgTfbsSydhHepg2Rad21IggrabUniPk'
p636
F0.969711
sS'wgEncodeAwgTfbsHaibGm12878Mta3sc81325V0422111UniPk'
p637
F0.498724
sS'wgEncodeAwgTfbsSydhGm12878TbpIggmusUniPk'
p638
F0.787765
sS'wgEncodeAwgTfbsHaibK562Pol24h8V0416101UniPk'
p639
F0.820638
sS'wgEncodeAwgTfbsSydhHelas3Tf3c110UniPk'
p640
F0.91125
sS'wgEncodeAwgTfbsUwCaco2CtcfUniPk'
p641
F0.983401
sS'wgEncodeAwgTfbsUwHffCtcfUniPk'
p642
F0.984424
sS'wgEncodeAwgTfbsHaibGm12878Foxm1sc502V0422111UniPk'
p643
F0.861456
sS'wgEncodeAwgTfbsSydhMcf10aesPol2TamUniPk'
p644
F0.79742
sS'wgEncodeAwgTfbsSydhPbdePol2UcdUniPk'
p645
F0.494489
sS'wgEncodeAwgTfbsSydhNb4MaxUniPk'
p646
F0.504509
sS'wgEncodeAwgTfbsSydhH1hescChd1a301218aIggrabUniPk'
p647
F0.629276
sS'wgEncodeAwgTfbsSydhHelas3Rpc155UniPk'
p648
F0.96512
sS'wgEncodeAwgTfbsSydhHepg2Tcf7l2UcdUniPk'
p649
F0.820936
sS'wgEncodeAwgTfbsHaibGm12878Six5Pcr1xUniPk'
p650
F0.89242
sS'wgEncodeAwgTfbsHaibSknshraRad21V0416102UniPk'
p651
F0.944582
sS'wgEncodeAwgTfbsUwAoafCtcfUniPk'
p652
F0.978543
sS'wgEncodeAwgTfbsUwHct116CtcfUniPk'
p653
F0.979997
sS'wgEncodeAwgTfbsSydhK562Setdb1UcdUniPk'
p654
F0.4778
sS'wgEncodeAwgTfbsHaibHuvecPol24h8V0416101UniPk'
p655
F0.492441
sS'wgEncodeAwgTfbsHaibA549Bcl3V0422111Etoh02UniPk'
p656
F0.823064
sS'wgEncodeAwgTfbsHaibT47dGata3sc268V0416102Dm002p1hUniPk'
p657
F0.496182
sS'wgEncodeAwgTfbsSydhGm12878Znf274UniPk'
p658
F0.383049
sS'wgEncodeAwgTfbsHaibGm12878Elf1sc631V0416101UniPk'
p659
F0.885307
sS'wgEncodeAwgTfbsSydhK562CmycIggrabUniPk'
p660
F0.871495
sS'wgEncodeAwgTfbsSydhK562Pol3UniPk'
p661
F0.923214
sS'wgEncodeAwgTfbsSydhK562Stat1Ifng30UniPk'
p662
F0.503469
sS'wgEncodeAwgTfbsBroadK562P300UniPk'
p663
F0.768376
sS'wgEncodeAwgTfbsSydhGm12892NfkbTnfaIggrabUniPk'
p664
F0.777376
sS'wgEncodeAwgTfbsSydhHelas3Brg1IggmusUniPk'
p665
F0.683291
sS'wgEncodeAwgTfbsSydhHelas3Brca1a300IggrabUniPk'
p666
F0.851257
sS'wgEncodeAwgTfbsSydhK562Pol2IggmusUniPk'
p667
F0.618028
sS'wgEncodeAwgTfbsHaibA549Six5V0422111Etoh02UniPk'
p668
F0.734715
sS'wgEncodeAwgTfbsHaibGm12891Pol24h8Pcr1xUniPk'
p669
F0.77566
sS'wgEncodeAwgTfbsSydhHepg2Usf2IggrabUniPk'
p670
F0.973556
sS'wgEncodeAwgTfbsSydhH1hescMaxUcdUniPk'
p671
F0.907241
sS'wgEncodeAwgTfbsHaibH1hescSp4v20V0422111UniPk'
p672
F0.782148
sS'wgEncodeAwgTfbsUtaFibroblCtcfUniPk'
p673
F0.964994
sS'wgEncodeAwgTfbsUtaGm12878CtcfUniPk'
p674
F0.983659
sS'wgEncodeAwgTfbsHaibK562Elf1sc631V0416102UniPk'
p675
F0.943286
sS'wgEncodeAwgTfbsHaibGm12878Ets1Pcr1xUniPk'
p676
F0.851696
sS'wgEncodeAwgTfbsHaibK562Zbtb7asc34508V0416101UniPk'
p677
F0.507418
sS'wgEncodeAwgTfbsSydhHelas3Tr4UniPk'
p678
F0.474549
sS'wgEncodeAwgTfbsUwWi38CtcfUniPk'
p679
F0.503211
sS'wgEncodeAwgTfbsSydhA549MaxIggrabUniPk'
p680
F0.855577
sS'wgEncodeAwgTfbsSydhGm12878Zzz3UniPk'
p681
F0.888779
sS'wgEncodeAwgTfbsSydhGm12878NfybIggmusUniPk'
p682
F0.5025
sS'wgEncodeAwgTfbsHaibA549Usf1Pcr1xEtoh02UniPk'
p683
F0.938758
sS'wgEncodeAwgTfbsHaibK562Rad21V0416102UniPk'
p684
F0.980341
sS'wgEncodeAwgTfbsSydhHelas3Baf155IggmusUniPk'
p685
F0.768542
sS'wgEncodeAwgTfbsBroadDnd41CtcfUniPk'
p686
F0.975928
sS'wgEncodeAwgTfbsHaibGm12891Pax5c20V0416101UniPk'
p687
F0.497961
sS'wgEncodeAwgTfbsSydhHepg2Rfx5200401194IggrabUniPk'
p688
F0.885029
sS'wgEncodeAwgTfbsSydhU2osSetdb1UcdUniPk'
p689
F0.816853
sS'wgEncodeAwgTfbsHaibK562Ets1V0416101UniPk'
p690
F0.81961
s.